SF:/home/jozias/projects/rust-lang/shashasha/src/keccak.rs
FN:100,_RINvNtCsdCcYIHEm2KI_9shashasha6keccak8keccak_phEB4_
FN:100,_RINvNtCsdCcYIHEm2KI_9shashasha6keccak8keccak_pmEB4_
FN:100,_RINvNtCsdCcYIHEm2KI_9shashasha6keccak8keccak_ptEB4_
FN:100,_RINvNtCsdCcYIHEm2KI_9shashasha6keccak8keccak_pyEB4_
FN:145,_RNCINvNtCsdCcYIHEm2KI_9shashasha6keccak8keccak_phE0B6_
FN:145,_RNCINvNtCsdCcYIHEm2KI_9shashasha6keccak8keccak_pmE0B6_
FN:145,_RNCINvNtCsdCcYIHEm2KI_9shashasha6keccak8keccak_ptE0B6_
FN:145,_RNCINvNtCsdCcYIHEm2KI_9shashasha6keccak8keccak_pyE0B6_
FN:36,_RNvNtCsdCcYIHEm2KI_9shashasha6keccak5f_200
FN:56,_RNvNtCsdCcYIHEm2KI_9shashasha6keccak5f_400
FN:76,_RNvNtCsdCcYIHEm2KI_9shashasha6keccak5f_800
FN:26,_RNvNtCsdCcYIHEm2KI_9shashasha6keccak5p_200
FN:46,_RNvNtCsdCcYIHEm2KI_9shashasha6keccak5p_400
FN:66,_RNvNtCsdCcYIHEm2KI_9shashasha6keccak5p_800
FN:96,_RNvNtCsdCcYIHEm2KI_9shashasha6keccak6f_1600
FN:86,_RNvNtCsdCcYIHEm2KI_9shashasha6keccak6p_1600
FN:171,_RNvNtNtCsdCcYIHEm2KI_9shashasha6keccak4tests_11f_200_works
FN:192,_RNvNtNtCsdCcYIHEm2KI_9shashasha6keccak4tests_11f_400_works
FN:215,_RNvNtNtCsdCcYIHEm2KI_9shashasha6keccak4tests_11f_800_works
FN:282,_RNvNtNtCsdCcYIHEm2KI_9shashasha6keccak4tests_12f_1600_works
FN:163,_RNvNtNtCsdCcYIHEm2KI_9shashasha6keccak4tests_28invalid_round_count_is_error
FN:36,_RNvNtCslzs1qOtDAlK_9shashasha6keccak5f_200
FN:56,_RNvNtCslzs1qOtDAlK_9shashasha6keccak5f_400
FN:76,_RNvNtCslzs1qOtDAlK_9shashasha6keccak5f_800
FN:26,_RNvNtCslzs1qOtDAlK_9shashasha6keccak5p_200
FN:46,_RNvNtCslzs1qOtDAlK_9shashasha6keccak5p_400
FN:66,_RNvNtCslzs1qOtDAlK_9shashasha6keccak5p_800
FN:96,_RNvNtCslzs1qOtDAlK_9shashasha6keccak6f_1600
FN:86,_RNvNtCslzs1qOtDAlK_9shashasha6keccak6p_1600
FN:171,_RNvNtNtCslzs1qOtDAlK_9shashasha6keccak4tests_11f_200_works
FN:192,_RNvNtNtCslzs1qOtDAlK_9shashasha6keccak4tests_11f_400_works
FN:215,_RNvNtNtCslzs1qOtDAlK_9shashasha6keccak4tests_11f_800_works
FN:282,_RNvNtNtCslzs1qOtDAlK_9shashasha6keccak4tests_12f_1600_works
FN:163,_RNvNtNtCslzs1qOtDAlK_9shashasha6keccak4tests_28invalid_round_count_is_error
FN:100,_RINvNtCslzs1qOtDAlK_9shashasha6keccak8keccak_phEB4_
FN:100,_RINvNtCslzs1qOtDAlK_9shashasha6keccak8keccak_pmEB4_
FN:100,_RINvNtCslzs1qOtDAlK_9shashasha6keccak8keccak_ptEB4_
FN:100,_RINvNtCslzs1qOtDAlK_9shashasha6keccak8keccak_pyEB4_
FN:145,_RNCINvNtCslzs1qOtDAlK_9shashasha6keccak8keccak_phE0B6_
FN:145,_RNCINvNtCslzs1qOtDAlK_9shashasha6keccak8keccak_pmE0B6_
FN:145,_RNCINvNtCslzs1qOtDAlK_9shashasha6keccak8keccak_ptE0B6_
FN:145,_RNCINvNtCslzs1qOtDAlK_9shashasha6keccak8keccak_pyE0B6_
FNDA:3,_RINvNtCsdCcYIHEm2KI_9shashasha6keccak8keccak_phEB4_
FNDA:3,_RINvNtCsdCcYIHEm2KI_9shashasha6keccak8keccak_pmEB4_
FNDA:3,_RINvNtCsdCcYIHEm2KI_9shashasha6keccak8keccak_ptEB4_
FNDA:129,_RINvNtCsdCcYIHEm2KI_9shashasha6keccak8keccak_pyEB4_
FNDA:0,_RNCINvNtCsdCcYIHEm2KI_9shashasha6keccak8keccak_phE0B6_
FNDA:0,_RNCINvNtCsdCcYIHEm2KI_9shashasha6keccak8keccak_pmE0B6_
FNDA:0,_RNCINvNtCsdCcYIHEm2KI_9shashasha6keccak8keccak_ptE0B6_
FNDA:0,_RNCINvNtCsdCcYIHEm2KI_9shashasha6keccak8keccak_pyE0B6_
FNDA:2,_RNvNtCsdCcYIHEm2KI_9shashasha6keccak5f_200
FNDA:2,_RNvNtCsdCcYIHEm2KI_9shashasha6keccak5f_400
FNDA:2,_RNvNtCsdCcYIHEm2KI_9shashasha6keccak5f_800
FNDA:2,_RNvNtCsdCcYIHEm2KI_9shashasha6keccak5p_200
FNDA:2,_RNvNtCsdCcYIHEm2KI_9shashasha6keccak5p_400
FNDA:2,_RNvNtCsdCcYIHEm2KI_9shashasha6keccak5p_800
FNDA:128,_RNvNtCsdCcYIHEm2KI_9shashasha6keccak6f_1600
FNDA:128,_RNvNtCsdCcYIHEm2KI_9shashasha6keccak6p_1600
FNDA:1,_RNvNtNtCsdCcYIHEm2KI_9shashasha6keccak4tests_11f_200_works
FNDA:1,_RNvNtNtCsdCcYIHEm2KI_9shashasha6keccak4tests_11f_400_works
FNDA:1,_RNvNtNtCsdCcYIHEm2KI_9shashasha6keccak4tests_11f_800_works
FNDA:1,_RNvNtNtCsdCcYIHEm2KI_9shashasha6keccak4tests_12f_1600_works
FNDA:1,_RNvNtNtCsdCcYIHEm2KI_9shashasha6keccak4tests_28invalid_round_count_is_error
FNDA:2,_RNvNtCslzs1qOtDAlK_9shashasha6keccak5f_200
FNDA:2,_RNvNtCslzs1qOtDAlK_9shashasha6keccak5f_400
FNDA:2,_RNvNtCslzs1qOtDAlK_9shashasha6keccak5f_800
FNDA:2,_RNvNtCslzs1qOtDAlK_9shashasha6keccak5p_200
FNDA:2,_RNvNtCslzs1qOtDAlK_9shashasha6keccak5p_400
FNDA:2,_RNvNtCslzs1qOtDAlK_9shashasha6keccak5p_800
FNDA:128,_RNvNtCslzs1qOtDAlK_9shashasha6keccak6f_1600
FNDA:128,_RNvNtCslzs1qOtDAlK_9shashasha6keccak6p_1600
FNDA:1,_RNvNtNtCslzs1qOtDAlK_9shashasha6keccak4tests_11f_200_works
FNDA:1,_RNvNtNtCslzs1qOtDAlK_9shashasha6keccak4tests_11f_400_works
FNDA:1,_RNvNtNtCslzs1qOtDAlK_9shashasha6keccak4tests_11f_800_works
FNDA:1,_RNvNtNtCslzs1qOtDAlK_9shashasha6keccak4tests_12f_1600_works
FNDA:1,_RNvNtNtCslzs1qOtDAlK_9shashasha6keccak4tests_28invalid_round_count_is_error
FNDA:3,_RINvNtCslzs1qOtDAlK_9shashasha6keccak8keccak_phEB4_
FNDA:3,_RINvNtCslzs1qOtDAlK_9shashasha6keccak8keccak_pmEB4_
FNDA:3,_RINvNtCslzs1qOtDAlK_9shashasha6keccak8keccak_ptEB4_
FNDA:129,_RINvNtCslzs1qOtDAlK_9shashasha6keccak8keccak_pyEB4_
FNDA:0,_RNCINvNtCslzs1qOtDAlK_9shashasha6keccak8keccak_phE0B6_
FNDA:0,_RNCINvNtCslzs1qOtDAlK_9shashasha6keccak8keccak_pmE0B6_
FNDA:0,_RNCINvNtCslzs1qOtDAlK_9shashasha6keccak8keccak_ptE0B6_
FNDA:0,_RNCINvNtCslzs1qOtDAlK_9shashasha6keccak8keccak_pyE0B6_
FNF:15
FNH:14
DA:26,4
DA:27,4
DA:28,4
DA:36,4
DA:37,4
DA:38,4
DA:46,4
DA:47,4
DA:48,4
DA:56,4
DA:57,4
DA:58,4
DA:66,4
DA:67,4
DA:68,4
DA:76,4
DA:77,4
DA:78,4
DA:86,256
DA:87,256
DA:88,256
DA:96,256
DA:97,256
DA:98,256
DA:100,276
DA:101,276
DA:102,268
DA:103,268
DA:105,6652
DA:106,6384
DA:108,38304
DA:109,191520
DA:110,159600
DA:111,159600
DA:115,38304
DA:116,31920
DA:117,31920
DA:118,191520
DA:119,159600
DA:120,159600
DA:124,6384
DA:125,159600
DA:126,153216
DA:127,153216
DA:128,153216
DA:129,153216
DA:132,38304
DA:133,31920
DA:134,31920
DA:136,191520
DA:137,159600
DA:138,159600
DA:139,159600
DA:140,159600
DA:144,6384
DA:145,6384
DA:148,268
DA:150,8
DA:152,276
DA:163,2
DA:164,2
DA:165,2
DA:166,2
DA:167,2
DA:168,2
DA:171,2
DA:174,2
DA:175,2
DA:176,2
DA:177,2
DA:178,2
DA:179,2
DA:180,2
DA:181,2
DA:183,2
DA:184,2
DA:185,2
DA:186,2
DA:187,2
DA:188,2
DA:189,2
DA:192,2
DA:195,2
DA:196,2
DA:197,2
DA:198,2
DA:199,2
DA:200,2
DA:201,2
DA:202,2
DA:203,2
DA:204,2
DA:206,2
DA:207,2
DA:208,2
DA:209,2
DA:210,2
DA:211,2
DA:212,2
DA:215,2
DA:218,2
DA:219,2
DA:220,2
DA:221,2
DA:222,2
DA:223,2
DA:224,2
DA:225,2
DA:226,2
DA:227,2
DA:228,2
DA:229,2
DA:230,2
DA:231,2
DA:232,2
DA:233,2
DA:234,2
DA:235,2
DA:236,2
DA:237,2
DA:238,2
DA:239,2
DA:240,2
DA:241,2
DA:242,2
DA:243,2
DA:244,2
DA:245,2
DA:246,2
DA:247,2
DA:248,2
DA:249,2
DA:250,2
DA:251,2
DA:252,2
DA:253,2
DA:254,2
DA:255,2
DA:256,2
DA:257,2
DA:258,2
DA:259,2
DA:260,2
DA:261,2
DA:262,2
DA:263,2
DA:264,2
DA:265,2
DA:266,2
DA:267,2
DA:268,2
DA:269,2
DA:270,2
DA:271,2
DA:273,2
DA:274,2
DA:275,2
DA:276,2
DA:277,2
DA:278,2
DA:279,2
DA:282,2
DA:285,2
DA:286,2
DA:287,2
DA:288,2
DA:289,2
DA:290,2
DA:291,2
DA:292,2
DA:293,2
DA:294,2
DA:295,2
DA:296,2
DA:297,2
DA:298,2
DA:299,2
DA:300,2
DA:301,2
DA:302,2
DA:303,2
DA:304,2
DA:305,2
DA:306,2
DA:307,2
DA:308,2
DA:309,2
DA:310,2
DA:311,2
DA:312,2
DA:313,2
DA:314,2
DA:315,2
DA:316,2
DA:317,2
DA:318,2
DA:319,2
DA:320,2
DA:321,2
DA:322,2
DA:323,2
DA:324,2
DA:325,2
DA:326,2
DA:327,2
DA:328,2
DA:329,2
DA:330,2
DA:331,2
DA:332,2
DA:333,2
DA:334,2
DA:335,2
DA:336,2
DA:337,2
DA:338,2
DA:340,2
DA:341,2
DA:342,2
DA:343,2
DA:344,2
DA:345,2
DA:346,2
BRF:0
BRH:0
LF:224
LH:223
end_of_record
SF:/home/jozias/projects/rust-lang/shashasha/src/lane.rs
FN:52,_RNvXNtCsdCcYIHEm2KI_9shashasha4lanehNtB2_4Lane11rotate_left
FN:48,_RNvXNtCsdCcYIHEm2KI_9shashasha4lanehNtB2_4Lane8truncate
FN:78,_RNvXs0_NtCsdCcYIHEm2KI_9shashasha4lanemNtB5_4Lane11rotate_left
FN:73,_RNvXs0_NtCsdCcYIHEm2KI_9shashasha4lanemNtB5_4Lane8truncate
FN:90,_RNvXs1_NtCsdCcYIHEm2KI_9shashasha4laneyNtB5_4Lane11rotate_left
FN:86,_RNvXs1_NtCsdCcYIHEm2KI_9shashasha4laneyNtB5_4Lane8truncate
FN:65,_RNvXs_NtCsdCcYIHEm2KI_9shashasha4lanetNtB4_4Lane11rotate_left
FN:60,_RNvXs_NtCsdCcYIHEm2KI_9shashasha4lanetNtB4_4Lane8truncate
FN:52,_RNvXNtCslzs1qOtDAlK_9shashasha4lanehNtB2_4Lane11rotate_left
FN:48,_RNvXNtCslzs1qOtDAlK_9shashasha4lanehNtB2_4Lane8truncate
FN:78,_RNvXs0_NtCslzs1qOtDAlK_9shashasha4lanemNtB5_4Lane11rotate_left
FN:73,_RNvXs0_NtCslzs1qOtDAlK_9shashasha4lanemNtB5_4Lane8truncate
FN:90,_RNvXs1_NtCslzs1qOtDAlK_9shashasha4laneyNtB5_4Lane11rotate_left
FN:86,_RNvXs1_NtCslzs1qOtDAlK_9shashasha4laneyNtB5_4Lane8truncate
FN:65,_RNvXs_NtCslzs1qOtDAlK_9shashasha4lanetNtB4_4Lane11rotate_left
FN:60,_RNvXs_NtCslzs1qOtDAlK_9shashasha4lanetNtB4_4Lane8truncate
FNDA:1044,_RNvXNtCsdCcYIHEm2KI_9shashasha4lanehNtB2_4Lane11rotate_left
FNDA:36,_RNvXNtCsdCcYIHEm2KI_9shashasha4lanehNtB2_4Lane8truncate
FNDA:1276,_RNvXs0_NtCsdCcYIHEm2KI_9shashasha4lanemNtB5_4Lane11rotate_left
FNDA:44,_RNvXs0_NtCsdCcYIHEm2KI_9shashasha4lanemNtB5_4Lane8truncate
FNDA:89088,_RNvXs1_NtCsdCcYIHEm2KI_9shashasha4laneyNtB5_4Lane11rotate_left
FNDA:3072,_RNvXs1_NtCsdCcYIHEm2KI_9shashasha4laneyNtB5_4Lane8truncate
FNDA:1160,_RNvXs_NtCsdCcYIHEm2KI_9shashasha4lanetNtB4_4Lane11rotate_left
FNDA:40,_RNvXs_NtCsdCcYIHEm2KI_9shashasha4lanetNtB4_4Lane8truncate
FNDA:1044,_RNvXNtCslzs1qOtDAlK_9shashasha4lanehNtB2_4Lane11rotate_left
FNDA:36,_RNvXNtCslzs1qOtDAlK_9shashasha4lanehNtB2_4Lane8truncate
FNDA:1276,_RNvXs0_NtCslzs1qOtDAlK_9shashasha4lanemNtB5_4Lane11rotate_left
FNDA:44,_RNvXs0_NtCslzs1qOtDAlK_9shashasha4lanemNtB5_4Lane8truncate
FNDA:89088,_RNvXs1_NtCslzs1qOtDAlK_9shashasha4laneyNtB5_4Lane11rotate_left
FNDA:3072,_RNvXs1_NtCslzs1qOtDAlK_9shashasha4laneyNtB5_4Lane8truncate
FNDA:1160,_RNvXs_NtCslzs1qOtDAlK_9shashasha4lanetNtB4_4Lane11rotate_left
FNDA:40,_RNvXs_NtCslzs1qOtDAlK_9shashasha4lanetNtB4_4Lane8truncate
FNF:8
FNH:8
DA:48,72
DA:49,72
DA:50,72
DA:52,2088
DA:53,2088
DA:54,2088
DA:60,80
DA:61,80
DA:62,80
DA:63,80
DA:65,2320
DA:66,2320
DA:67,2320
DA:73,88
DA:74,88
DA:75,88
DA:76,88
DA:78,2552
DA:79,2552
DA:80,2552
DA:86,6144
DA:87,6144
DA:88,6144
DA:90,178176
DA:91,178176
DA:92,178176
BRF:0
BRH:0
LF:26
LH:26
end_of_record
SF:/home/jozias/projects/rust-lang/shashasha/src/lib.rs
FN:362,_RNvNtCsdCcYIHEm2KI_9shashasha4test18create_test_vector
FN:362,_RNvNtCslzs1qOtDAlK_9shashasha4test18create_test_vector
FNDA:18,_RNvNtCsdCcYIHEm2KI_9shashasha4test18create_test_vector
FNDA:18,_RNvNtCslzs1qOtDAlK_9shashasha4test18create_test_vector
FNF:1
FNH:1
DA:362,36
DA:364,36
DA:365,1836
DA:366,1800
DA:367,1800
DA:369,36
DA:370,12
DA:372,12
DA:373,12
DA:374,12
DA:376,12
DA:377,12
DA:378,12
DA:380,36
DA:381,36
BRF:0
BRH:0
LF:15
LH:15
end_of_record
SF:/home/jozias/projects/rust-lang/shashasha/src/sha3/mod.rs
FN:31,_RNvMNtCsdCcYIHEm2KI_9shashasha4sha3INtB2_4Sha3Kj1c_E11update_bitsB4_
FN:26,_RNvMNtCsdCcYIHEm2KI_9shashasha4sha3INtB2_4Sha3Kj1c_E6updateB4_
FN:36,_RNvMNtCsdCcYIHEm2KI_9shashasha4sha3INtB2_4Sha3Kj1c_E8finalizeB4_
FN:31,_RNvMNtCsdCcYIHEm2KI_9shashasha4sha3INtB2_4Sha3Kj20_E11update_bitsB4_
FN:26,_RNvMNtCsdCcYIHEm2KI_9shashasha4sha3INtB2_4Sha3Kj20_E6updateB4_
FN:36,_RNvMNtCsdCcYIHEm2KI_9shashasha4sha3INtB2_4Sha3Kj20_E8finalizeB4_
FN:31,_RNvMNtCsdCcYIHEm2KI_9shashasha4sha3INtB2_4Sha3Kj30_E11update_bitsB4_
FN:26,_RNvMNtCsdCcYIHEm2KI_9shashasha4sha3INtB2_4Sha3Kj30_E6updateB4_
FN:36,_RNvMNtCsdCcYIHEm2KI_9shashasha4sha3INtB2_4Sha3Kj30_E8finalizeB4_
FN:31,_RNvMNtCsdCcYIHEm2KI_9shashasha4sha3INtB2_4Sha3Kj40_E11update_bitsB4_
FN:26,_RNvMNtCsdCcYIHEm2KI_9shashasha4sha3INtB2_4Sha3Kj40_E6updateB4_
FN:36,_RNvMNtCsdCcYIHEm2KI_9shashasha4sha3INtB2_4Sha3Kj40_E8finalizeB4_
FN:31,_RNvMNtCslzs1qOtDAlK_9shashasha4sha3INtB2_4Sha3Kj1c_E11update_bitsB4_
FN:26,_RNvMNtCslzs1qOtDAlK_9shashasha4sha3INtB2_4Sha3Kj1c_E6updateB4_
FN:36,_RNvMNtCslzs1qOtDAlK_9shashasha4sha3INtB2_4Sha3Kj1c_E8finalizeB4_
FN:31,_RNvMNtCslzs1qOtDAlK_9shashasha4sha3INtB2_4Sha3Kj20_E11update_bitsB4_
FN:26,_RNvMNtCslzs1qOtDAlK_9shashasha4sha3INtB2_4Sha3Kj20_E6updateB4_
FN:36,_RNvMNtCslzs1qOtDAlK_9shashasha4sha3INtB2_4Sha3Kj20_E8finalizeB4_
FN:31,_RNvMNtCslzs1qOtDAlK_9shashasha4sha3INtB2_4Sha3Kj30_E11update_bitsB4_
FN:26,_RNvMNtCslzs1qOtDAlK_9shashasha4sha3INtB2_4Sha3Kj30_E6updateB4_
FN:36,_RNvMNtCslzs1qOtDAlK_9shashasha4sha3INtB2_4Sha3Kj30_E8finalizeB4_
FN:31,_RNvMNtCslzs1qOtDAlK_9shashasha4sha3INtB2_4Sha3Kj40_E11update_bitsB4_
FN:26,_RNvMNtCslzs1qOtDAlK_9shashasha4sha3INtB2_4Sha3Kj40_E6updateB4_
FN:36,_RNvMNtCslzs1qOtDAlK_9shashasha4sha3INtB2_4Sha3Kj40_E8finalizeB4_
FNDA:5,_RNvMNtCsdCcYIHEm2KI_9shashasha4sha3INtB2_4Sha3Kj1c_E11update_bitsB4_
FNDA:1,_RNvMNtCsdCcYIHEm2KI_9shashasha4sha3INtB2_4Sha3Kj1c_E6updateB4_
FNDA:7,_RNvMNtCsdCcYIHEm2KI_9shashasha4sha3INtB2_4Sha3Kj1c_E8finalizeB4_
FNDA:5,_RNvMNtCsdCcYIHEm2KI_9shashasha4sha3INtB2_4Sha3Kj20_E11update_bitsB4_
FNDA:1,_RNvMNtCsdCcYIHEm2KI_9shashasha4sha3INtB2_4Sha3Kj20_E6updateB4_
FNDA:7,_RNvMNtCsdCcYIHEm2KI_9shashasha4sha3INtB2_4Sha3Kj20_E8finalizeB4_
FNDA:5,_RNvMNtCsdCcYIHEm2KI_9shashasha4sha3INtB2_4Sha3Kj30_E11update_bitsB4_
FNDA:1,_RNvMNtCsdCcYIHEm2KI_9shashasha4sha3INtB2_4Sha3Kj30_E6updateB4_
FNDA:7,_RNvMNtCsdCcYIHEm2KI_9shashasha4sha3INtB2_4Sha3Kj30_E8finalizeB4_
FNDA:5,_RNvMNtCsdCcYIHEm2KI_9shashasha4sha3INtB2_4Sha3Kj40_E11update_bitsB4_
FNDA:1,_RNvMNtCsdCcYIHEm2KI_9shashasha4sha3INtB2_4Sha3Kj40_E6updateB4_
FNDA:7,_RNvMNtCsdCcYIHEm2KI_9shashasha4sha3INtB2_4Sha3Kj40_E8finalizeB4_
FNDA:5,_RNvMNtCslzs1qOtDAlK_9shashasha4sha3INtB2_4Sha3Kj1c_E11update_bitsB4_
FNDA:1,_RNvMNtCslzs1qOtDAlK_9shashasha4sha3INtB2_4Sha3Kj1c_E6updateB4_
FNDA:7,_RNvMNtCslzs1qOtDAlK_9shashasha4sha3INtB2_4Sha3Kj1c_E8finalizeB4_
FNDA:5,_RNvMNtCslzs1qOtDAlK_9shashasha4sha3INtB2_4Sha3Kj20_E11update_bitsB4_
FNDA:1,_RNvMNtCslzs1qOtDAlK_9shashasha4sha3INtB2_4Sha3Kj20_E6updateB4_
FNDA:7,_RNvMNtCslzs1qOtDAlK_9shashasha4sha3INtB2_4Sha3Kj20_E8finalizeB4_
FNDA:5,_RNvMNtCslzs1qOtDAlK_9shashasha4sha3INtB2_4Sha3Kj30_E11update_bitsB4_
FNDA:1,_RNvMNtCslzs1qOtDAlK_9shashasha4sha3INtB2_4Sha3Kj30_E6updateB4_
FNDA:7,_RNvMNtCslzs1qOtDAlK_9shashasha4sha3INtB2_4Sha3Kj30_E8finalizeB4_
FNDA:5,_RNvMNtCslzs1qOtDAlK_9shashasha4sha3INtB2_4Sha3Kj40_E11update_bitsB4_
FNDA:1,_RNvMNtCslzs1qOtDAlK_9shashasha4sha3INtB2_4Sha3Kj40_E6updateB4_
FNDA:7,_RNvMNtCslzs1qOtDAlK_9shashasha4sha3INtB2_4Sha3Kj40_E8finalizeB4_
FNF:3
FNH:3
DA:26,8
DA:28,8
DA:29,8
DA:31,40
DA:33,40
DA:34,40
DA:36,56
DA:38,56
DA:39,56
DA:41,56
DA:43,56
DA:44,56
DA:45,56
BRF:0
BRH:0
LF:13
LH:13
end_of_record
SF:/home/jozias/projects/rust-lang/shashasha/src/sha3/sha224.rs
FN:34,_RNvMs_NtNtCsdCcYIHEm2KI_9shashasha4sha36sha224NtB4_8Sha3_2243new
FN:26,_RNvXNtNtCsdCcYIHEm2KI_9shashasha4sha36sha224NtB2_8Sha3_224NtNtCs6v2AsOoWRgb_4core7default7Default7default
FN:44,_RNvXs0_NtNtCsdCcYIHEm2KI_9shashasha4sha36sha224NtB5_8Sha3_224INtNtB9_6traits6HasherKj1c_E6update
FN:48,_RNvXs0_NtNtCsdCcYIHEm2KI_9shashasha4sha36sha224NtB5_8Sha3_224INtNtB9_6traits6HasherKj1c_E8finalize
FN:54,_RNvXs1_NtNtCsdCcYIHEm2KI_9shashasha4sha36sha224NtB5_8Sha3_224INtNtB9_6traits10HasherBitsKj1c_E11update_bits
FN:87,_RNvNtNtNtCsdCcYIHEm2KI_9shashasha4sha36sha2244tests_20test_sha3_224_0_bits
FN:98,_RNvNtNtNtCsdCcYIHEm2KI_9shashasha4sha36sha2244tests_20test_sha3_224_5_bits
FN:110,_RNvNtNtNtCsdCcYIHEm2KI_9shashasha4sha36sha2244tests_21test_sha3_224_30_bits
FN:122,_RNvNtNtNtCsdCcYIHEm2KI_9shashasha4sha36sha2244tests_23test_sha3_224_1600_bits
FN:137,_RNvNtNtNtCsdCcYIHEm2KI_9shashasha4sha36sha2244tests_23test_sha3_224_1605_bits
FN:152,_RNvNtNtNtCsdCcYIHEm2KI_9shashasha4sha36sha2244tests_23test_sha3_224_1630_bits
FN:166,_RNvNtNtNtCsdCcYIHEm2KI_9shashasha4sha36sha2244tests_23test_sha3_224_byte_data
FN:34,_RNvMs_NtNtCslzs1qOtDAlK_9shashasha4sha36sha224NtB4_8Sha3_2243new
FN:26,_RNvXNtNtCslzs1qOtDAlK_9shashasha4sha36sha224NtB2_8Sha3_224NtNtCs6v2AsOoWRgb_4core7default7Default7default
FN:44,_RNvXs0_NtNtCslzs1qOtDAlK_9shashasha4sha36sha224NtB5_8Sha3_224INtNtB9_6traits6HasherKj1c_E6update
FN:48,_RNvXs0_NtNtCslzs1qOtDAlK_9shashasha4sha36sha224NtB5_8Sha3_224INtNtB9_6traits6HasherKj1c_E8finalize
FN:54,_RNvXs1_NtNtCslzs1qOtDAlK_9shashasha4sha36sha224NtB5_8Sha3_224INtNtB9_6traits10HasherBitsKj1c_E11update_bits
FN:87,_RNvNtNtNtCslzs1qOtDAlK_9shashasha4sha36sha2244tests_20test_sha3_224_0_bits
FN:98,_RNvNtNtNtCslzs1qOtDAlK_9shashasha4sha36sha2244tests_20test_sha3_224_5_bits
FN:110,_RNvNtNtNtCslzs1qOtDAlK_9shashasha4sha36sha2244tests_21test_sha3_224_30_bits
FN:122,_RNvNtNtNtCslzs1qOtDAlK_9shashasha4sha36sha2244tests_23test_sha3_224_1600_bits
FN:137,_RNvNtNtNtCslzs1qOtDAlK_9shashasha4sha36sha2244tests_23test_sha3_224_1605_bits
FN:152,_RNvNtNtNtCslzs1qOtDAlK_9shashasha4sha36sha2244tests_23test_sha3_224_1630_bits
FN:166,_RNvNtNtNtCslzs1qOtDAlK_9shashasha4sha36sha2244tests_23test_sha3_224_byte_data
FNDA:7,_RNvMs_NtNtCsdCcYIHEm2KI_9shashasha4sha36sha224NtB4_8Sha3_2243new
FNDA:1,_RNvXNtNtCsdCcYIHEm2KI_9shashasha4sha36sha224NtB2_8Sha3_224NtNtCs6v2AsOoWRgb_4core7default7Default7default
FNDA:1,_RNvXs0_NtNtCsdCcYIHEm2KI_9shashasha4sha36sha224NtB5_8Sha3_224INtNtB9_6traits6HasherKj1c_E6update
FNDA:7,_RNvXs0_NtNtCsdCcYIHEm2KI_9shashasha4sha36sha224NtB5_8Sha3_224INtNtB9_6traits6HasherKj1c_E8finalize
FNDA:5,_RNvXs1_NtNtCsdCcYIHEm2KI_9shashasha4sha36sha224NtB5_8Sha3_224INtNtB9_6traits10HasherBitsKj1c_E11update_bits
FNDA:1,_RNvNtNtNtCsdCcYIHEm2KI_9shashasha4sha36sha2244tests_20test_sha3_224_0_bits
FNDA:1,_RNvNtNtNtCsdCcYIHEm2KI_9shashasha4sha36sha2244tests_20test_sha3_224_5_bits
FNDA:1,_RNvNtNtNtCsdCcYIHEm2KI_9shashasha4sha36sha2244tests_21test_sha3_224_30_bits
FNDA:1,_RNvNtNtNtCsdCcYIHEm2KI_9shashasha4sha36sha2244tests_23test_sha3_224_1600_bits
FNDA:1,_RNvNtNtNtCsdCcYIHEm2KI_9shashasha4sha36sha2244tests_23test_sha3_224_1605_bits
FNDA:1,_RNvNtNtNtCsdCcYIHEm2KI_9shashasha4sha36sha2244tests_23test_sha3_224_1630_bits
FNDA:1,_RNvNtNtNtCsdCcYIHEm2KI_9shashasha4sha36sha2244tests_23test_sha3_224_byte_data
FNDA:7,_RNvMs_NtNtCslzs1qOtDAlK_9shashasha4sha36sha224NtB4_8Sha3_2243new
FNDA:1,_RNvXNtNtCslzs1qOtDAlK_9shashasha4sha36sha224NtB2_8Sha3_224NtNtCs6v2AsOoWRgb_4core7default7Default7default
FNDA:1,_RNvXs0_NtNtCslzs1qOtDAlK_9shashasha4sha36sha224NtB5_8Sha3_224INtNtB9_6traits6HasherKj1c_E6update
FNDA:7,_RNvXs0_NtNtCslzs1qOtDAlK_9shashasha4sha36sha224NtB5_8Sha3_224INtNtB9_6traits6HasherKj1c_E8finalize
FNDA:5,_RNvXs1_NtNtCslzs1qOtDAlK_9shashasha4sha36sha224NtB5_8Sha3_224INtNtB9_6traits10HasherBitsKj1c_E11update_bits
FNDA:1,_RNvNtNtNtCslzs1qOtDAlK_9shashasha4sha36sha2244tests_20test_sha3_224_0_bits
FNDA:1,_RNvNtNtNtCslzs1qOtDAlK_9shashasha4sha36sha2244tests_20test_sha3_224_5_bits
FNDA:1,_RNvNtNtNtCslzs1qOtDAlK_9shashasha4sha36sha2244tests_21test_sha3_224_30_bits
FNDA:1,_RNvNtNtNtCslzs1qOtDAlK_9shashasha4sha36sha2244tests_23test_sha3_224_1600_bits
FNDA:1,_RNvNtNtNtCslzs1qOtDAlK_9shashasha4sha36sha2244tests_23test_sha3_224_1605_bits
FNDA:1,_RNvNtNtNtCslzs1qOtDAlK_9shashasha4sha36sha2244tests_23test_sha3_224_1630_bits
FNDA:1,_RNvNtNtNtCslzs1qOtDAlK_9shashasha4sha36sha2244tests_23test_sha3_224_byte_data
FNF:12
FNH:12
DA:26,2
DA:27,2
DA:28,2
DA:34,14
DA:35,14
DA:36,14
DA:37,14
DA:38,14
DA:39,14
DA:40,14
DA:44,2
DA:45,2
DA:46,2
DA:48,14
DA:49,14
DA:50,14
DA:54,10
DA:55,10
DA:56,10
DA:87,2
DA:88,2
DA:89,2
DA:90,2
DA:91,2
DA:92,2
DA:93,2
DA:94,2
DA:98,2
DA:99,2
DA:100,2
DA:101,2
DA:102,2
DA:103,2
DA:104,2
DA:105,2
DA:106,2
DA:110,2
DA:111,2
DA:112,2
DA:113,2
DA:114,2
DA:115,2
DA:116,2
DA:117,2
DA:118,2
DA:122,2
DA:124,2
DA:125,2
DA:126,2
DA:127,2
DA:128,2
DA:129,2
DA:130,2
DA:131,2
DA:132,2
DA:133,2
DA:137,2
DA:139,2
DA:140,2
DA:141,2
DA:142,2
DA:143,2
DA:144,2
DA:145,2
DA:146,2
DA:147,2
DA:148,2
DA:152,2
DA:154,2
DA:155,2
DA:156,2
DA:157,2
DA:158,2
DA:159,2
DA:160,2
DA:161,2
DA:162,2
DA:163,2
DA:166,2
DA:167,2
DA:168,2
DA:169,2
DA:170,2
DA:171,2
DA:172,2
DA:173,2
DA:174,2
DA:175,2
BRF:0
BRH:0
LF:88
LH:88
end_of_record
SF:/home/jozias/projects/rust-lang/shashasha/src/sha3/sha256.rs
FN:34,_RNvMs_NtNtCsdCcYIHEm2KI_9shashasha4sha36sha256NtB4_8Sha3_2563new
FN:26,_RNvXNtNtCsdCcYIHEm2KI_9shashasha4sha36sha256NtB2_8Sha3_256NtNtCs6v2AsOoWRgb_4core7default7Default7default
FN:44,_RNvXs0_NtNtCsdCcYIHEm2KI_9shashasha4sha36sha256NtB5_8Sha3_256INtNtB9_6traits6HasherKj20_E6update
FN:48,_RNvXs0_NtNtCsdCcYIHEm2KI_9shashasha4sha36sha256NtB5_8Sha3_256INtNtB9_6traits6HasherKj20_E8finalize
FN:54,_RNvXs1_NtNtCsdCcYIHEm2KI_9shashasha4sha36sha256NtB5_8Sha3_256INtNtB9_6traits10HasherBitsKj20_E11update_bits
FN:79,_RNvNtNtNtCsdCcYIHEm2KI_9shashasha4sha36sha2564tests_20test_sha3_256_0_bits
FN:105,_RNvNtNtNtCsdCcYIHEm2KI_9shashasha4sha36sha2564tests_20test_sha3_256_5_bits
FN:89,_RNvNtNtNtCsdCcYIHEm2KI_9shashasha4sha36sha2564tests_20test_sha3_256_update
FN:117,_RNvNtNtNtCsdCcYIHEm2KI_9shashasha4sha36sha2564tests_21test_sha3_256_30_bits
FN:129,_RNvNtNtNtCsdCcYIHEm2KI_9shashasha4sha36sha2564tests_23test_sha3_256_1600_bits
FN:144,_RNvNtNtNtCsdCcYIHEm2KI_9shashasha4sha36sha2564tests_23test_sha3_256_1605_bits
FN:159,_RNvNtNtNtCsdCcYIHEm2KI_9shashasha4sha36sha2564tests_23test_sha3_256_1630_bits
FN:34,_RNvMs_NtNtCslzs1qOtDAlK_9shashasha4sha36sha256NtB4_8Sha3_2563new
FN:26,_RNvXNtNtCslzs1qOtDAlK_9shashasha4sha36sha256NtB2_8Sha3_256NtNtCs6v2AsOoWRgb_4core7default7Default7default
FN:44,_RNvXs0_NtNtCslzs1qOtDAlK_9shashasha4sha36sha256NtB5_8Sha3_256INtNtB9_6traits6HasherKj20_E6update
FN:48,_RNvXs0_NtNtCslzs1qOtDAlK_9shashasha4sha36sha256NtB5_8Sha3_256INtNtB9_6traits6HasherKj20_E8finalize
FN:54,_RNvXs1_NtNtCslzs1qOtDAlK_9shashasha4sha36sha256NtB5_8Sha3_256INtNtB9_6traits10HasherBitsKj20_E11update_bits
FN:79,_RNvNtNtNtCslzs1qOtDAlK_9shashasha4sha36sha2564tests_20test_sha3_256_0_bits
FN:105,_RNvNtNtNtCslzs1qOtDAlK_9shashasha4sha36sha2564tests_20test_sha3_256_5_bits
FN:89,_RNvNtNtNtCslzs1qOtDAlK_9shashasha4sha36sha2564tests_20test_sha3_256_update
FN:117,_RNvNtNtNtCslzs1qOtDAlK_9shashasha4sha36sha2564tests_21test_sha3_256_30_bits
FN:129,_RNvNtNtNtCslzs1qOtDAlK_9shashasha4sha36sha2564tests_23test_sha3_256_1600_bits
FN:144,_RNvNtNtNtCslzs1qOtDAlK_9shashasha4sha36sha2564tests_23test_sha3_256_1605_bits
FN:159,_RNvNtNtNtCslzs1qOtDAlK_9shashasha4sha36sha2564tests_23test_sha3_256_1630_bits
FNDA:7,_RNvMs_NtNtCsdCcYIHEm2KI_9shashasha4sha36sha256NtB4_8Sha3_2563new
FNDA:1,_RNvXNtNtCsdCcYIHEm2KI_9shashasha4sha36sha256NtB2_8Sha3_256NtNtCs6v2AsOoWRgb_4core7default7Default7default
FNDA:1,_RNvXs0_NtNtCsdCcYIHEm2KI_9shashasha4sha36sha256NtB5_8Sha3_256INtNtB9_6traits6HasherKj20_E6update
FNDA:7,_RNvXs0_NtNtCsdCcYIHEm2KI_9shashasha4sha36sha256NtB5_8Sha3_256INtNtB9_6traits6HasherKj20_E8finalize
FNDA:5,_RNvXs1_NtNtCsdCcYIHEm2KI_9shashasha4sha36sha256NtB5_8Sha3_256INtNtB9_6traits10HasherBitsKj20_E11update_bits
FNDA:1,_RNvNtNtNtCsdCcYIHEm2KI_9shashasha4sha36sha2564tests_20test_sha3_256_0_bits
FNDA:1,_RNvNtNtNtCsdCcYIHEm2KI_9shashasha4sha36sha2564tests_20test_sha3_256_5_bits
FNDA:1,_RNvNtNtNtCsdCcYIHEm2KI_9shashasha4sha36sha2564tests_20test_sha3_256_update
FNDA:1,_RNvNtNtNtCsdCcYIHEm2KI_9shashasha4sha36sha2564tests_21test_sha3_256_30_bits
FNDA:1,_RNvNtNtNtCsdCcYIHEm2KI_9shashasha4sha36sha2564tests_23test_sha3_256_1600_bits
FNDA:1,_RNvNtNtNtCsdCcYIHEm2KI_9shashasha4sha36sha2564tests_23test_sha3_256_1605_bits
FNDA:1,_RNvNtNtNtCsdCcYIHEm2KI_9shashasha4sha36sha2564tests_23test_sha3_256_1630_bits
FNDA:7,_RNvMs_NtNtCslzs1qOtDAlK_9shashasha4sha36sha256NtB4_8Sha3_2563new
FNDA:1,_RNvXNtNtCslzs1qOtDAlK_9shashasha4sha36sha256NtB2_8Sha3_256NtNtCs6v2AsOoWRgb_4core7default7Default7default
FNDA:1,_RNvXs0_NtNtCslzs1qOtDAlK_9shashasha4sha36sha256NtB5_8Sha3_256INtNtB9_6traits6HasherKj20_E6update
FNDA:7,_RNvXs0_NtNtCslzs1qOtDAlK_9shashasha4sha36sha256NtB5_8Sha3_256INtNtB9_6traits6HasherKj20_E8finalize
FNDA:5,_RNvXs1_NtNtCslzs1qOtDAlK_9shashasha4sha36sha256NtB5_8Sha3_256INtNtB9_6traits10HasherBitsKj20_E11update_bits
FNDA:1,_RNvNtNtNtCslzs1qOtDAlK_9shashasha4sha36sha2564tests_20test_sha3_256_0_bits
FNDA:1,_RNvNtNtNtCslzs1qOtDAlK_9shashasha4sha36sha2564tests_20test_sha3_256_5_bits
FNDA:1,_RNvNtNtNtCslzs1qOtDAlK_9shashasha4sha36sha2564tests_20test_sha3_256_update
FNDA:1,_RNvNtNtNtCslzs1qOtDAlK_9shashasha4sha36sha2564tests_21test_sha3_256_30_bits
FNDA:1,_RNvNtNtNtCslzs1qOtDAlK_9shashasha4sha36sha2564tests_23test_sha3_256_1600_bits
FNDA:1,_RNvNtNtNtCslzs1qOtDAlK_9shashasha4sha36sha2564tests_23test_sha3_256_1605_bits
FNDA:1,_RNvNtNtNtCslzs1qOtDAlK_9shashasha4sha36sha2564tests_23test_sha3_256_1630_bits
FNF:12
FNH:12
DA:26,2
DA:27,2
DA:28,2
DA:34,14
DA:35,14
DA:36,14
DA:37,14
DA:38,14
DA:39,14
DA:40,14
DA:44,2
DA:45,2
DA:46,2
DA:48,14
DA:49,14
DA:50,14
DA:54,10
DA:55,10
DA:56,10
DA:79,2
DA:80,2
DA:81,2
DA:82,2
DA:83,2
DA:84,2
DA:85,2
DA:86,2
DA:89,2
DA:90,2
DA:91,2
DA:92,2
DA:93,2
DA:94,2
DA:95,2
DA:96,2
DA:100,2
DA:101,2
DA:105,2
DA:106,2
DA:107,2
DA:108,2
DA:109,2
DA:110,2
DA:111,2
DA:112,2
DA:113,2
DA:117,2
DA:118,2
DA:119,2
DA:120,2
DA:121,2
DA:122,2
DA:123,2
DA:124,2
DA:125,2
DA:129,2
DA:131,2
DA:132,2
DA:133,2
DA:134,2
DA:135,2
DA:136,2
DA:137,2
DA:138,2
DA:139,2
DA:140,2
DA:144,2
DA:146,2
DA:147,2
DA:148,2
DA:149,2
DA:150,2
DA:151,2
DA:152,2
DA:153,2
DA:154,2
DA:155,2
DA:159,2
DA:161,2
DA:162,2
DA:163,2
DA:164,2
DA:165,2
DA:166,2
DA:167,2
DA:168,2
DA:169,2
DA:170,2
BRF:0
BRH:0
LF:88
LH:88
end_of_record
SF:/home/jozias/projects/rust-lang/shashasha/src/sha3/sha384.rs
FN:79,_RNvNtNtNtCsdCcYIHEm2KI_9shashasha4sha36sha3844tests_20test_sha3_384_0_bits
FN:105,_RNvNtNtNtCsdCcYIHEm2KI_9shashasha4sha36sha3844tests_20test_sha3_384_5_bits
FN:89,_RNvNtNtNtCsdCcYIHEm2KI_9shashasha4sha36sha3844tests_20test_sha3_384_update
FN:117,_RNvNtNtNtCsdCcYIHEm2KI_9shashasha4sha36sha3844tests_21test_sha3_384_30_bits
FN:129,_RNvNtNtNtCsdCcYIHEm2KI_9shashasha4sha36sha3844tests_23test_sha3_384_1600_bits
FN:144,_RNvNtNtNtCsdCcYIHEm2KI_9shashasha4sha36sha3844tests_23test_sha3_384_1605_bits
FN:159,_RNvNtNtNtCsdCcYIHEm2KI_9shashasha4sha36sha3844tests_23test_sha3_384_1630_bits
FN:34,_RNvMs_NtNtCsdCcYIHEm2KI_9shashasha4sha36sha384NtB4_8Sha3_3843new
FN:26,_RNvXNtNtCsdCcYIHEm2KI_9shashasha4sha36sha384NtB2_8Sha3_384NtNtCs6v2AsOoWRgb_4core7default7Default7default
FN:44,_RNvXs0_NtNtCsdCcYIHEm2KI_9shashasha4sha36sha384NtB5_8Sha3_384INtNtB9_6traits6HasherKj30_E6update
FN:48,_RNvXs0_NtNtCsdCcYIHEm2KI_9shashasha4sha36sha384NtB5_8Sha3_384INtNtB9_6traits6HasherKj30_E8finalize
FN:54,_RNvXs1_NtNtCsdCcYIHEm2KI_9shashasha4sha36sha384NtB5_8Sha3_384INtNtB9_6traits10HasherBitsKj30_E11update_bits
FN:79,_RNvNtNtNtCslzs1qOtDAlK_9shashasha4sha36sha3844tests_20test_sha3_384_0_bits
FN:105,_RNvNtNtNtCslzs1qOtDAlK_9shashasha4sha36sha3844tests_20test_sha3_384_5_bits
FN:89,_RNvNtNtNtCslzs1qOtDAlK_9shashasha4sha36sha3844tests_20test_sha3_384_update
FN:117,_RNvNtNtNtCslzs1qOtDAlK_9shashasha4sha36sha3844tests_21test_sha3_384_30_bits
FN:129,_RNvNtNtNtCslzs1qOtDAlK_9shashasha4sha36sha3844tests_23test_sha3_384_1600_bits
FN:144,_RNvNtNtNtCslzs1qOtDAlK_9shashasha4sha36sha3844tests_23test_sha3_384_1605_bits
FN:159,_RNvNtNtNtCslzs1qOtDAlK_9shashasha4sha36sha3844tests_23test_sha3_384_1630_bits
FN:34,_RNvMs_NtNtCslzs1qOtDAlK_9shashasha4sha36sha384NtB4_8Sha3_3843new
FN:26,_RNvXNtNtCslzs1qOtDAlK_9shashasha4sha36sha384NtB2_8Sha3_384NtNtCs6v2AsOoWRgb_4core7default7Default7default
FN:44,_RNvXs0_NtNtCslzs1qOtDAlK_9shashasha4sha36sha384NtB5_8Sha3_384INtNtB9_6traits6HasherKj30_E6update
FN:48,_RNvXs0_NtNtCslzs1qOtDAlK_9shashasha4sha36sha384NtB5_8Sha3_384INtNtB9_6traits6HasherKj30_E8finalize
FN:54,_RNvXs1_NtNtCslzs1qOtDAlK_9shashasha4sha36sha384NtB5_8Sha3_384INtNtB9_6traits10HasherBitsKj30_E11update_bits
FNDA:1,_RNvNtNtNtCsdCcYIHEm2KI_9shashasha4sha36sha3844tests_20test_sha3_384_0_bits
FNDA:1,_RNvNtNtNtCsdCcYIHEm2KI_9shashasha4sha36sha3844tests_20test_sha3_384_5_bits
FNDA:1,_RNvNtNtNtCsdCcYIHEm2KI_9shashasha4sha36sha3844tests_20test_sha3_384_update
FNDA:1,_RNvNtNtNtCsdCcYIHEm2KI_9shashasha4sha36sha3844tests_21test_sha3_384_30_bits
FNDA:1,_RNvNtNtNtCsdCcYIHEm2KI_9shashasha4sha36sha3844tests_23test_sha3_384_1600_bits
FNDA:1,_RNvNtNtNtCsdCcYIHEm2KI_9shashasha4sha36sha3844tests_23test_sha3_384_1605_bits
FNDA:1,_RNvNtNtNtCsdCcYIHEm2KI_9shashasha4sha36sha3844tests_23test_sha3_384_1630_bits
FNDA:7,_RNvMs_NtNtCsdCcYIHEm2KI_9shashasha4sha36sha384NtB4_8Sha3_3843new
FNDA:1,_RNvXNtNtCsdCcYIHEm2KI_9shashasha4sha36sha384NtB2_8Sha3_384NtNtCs6v2AsOoWRgb_4core7default7Default7default
FNDA:1,_RNvXs0_NtNtCsdCcYIHEm2KI_9shashasha4sha36sha384NtB5_8Sha3_384INtNtB9_6traits6HasherKj30_E6update
FNDA:7,_RNvXs0_NtNtCsdCcYIHEm2KI_9shashasha4sha36sha384NtB5_8Sha3_384INtNtB9_6traits6HasherKj30_E8finalize
FNDA:5,_RNvXs1_NtNtCsdCcYIHEm2KI_9shashasha4sha36sha384NtB5_8Sha3_384INtNtB9_6traits10HasherBitsKj30_E11update_bits
FNDA:1,_RNvNtNtNtCslzs1qOtDAlK_9shashasha4sha36sha3844tests_20test_sha3_384_0_bits
FNDA:1,_RNvNtNtNtCslzs1qOtDAlK_9shashasha4sha36sha3844tests_20test_sha3_384_5_bits
FNDA:1,_RNvNtNtNtCslzs1qOtDAlK_9shashasha4sha36sha3844tests_20test_sha3_384_update
FNDA:1,_RNvNtNtNtCslzs1qOtDAlK_9shashasha4sha36sha3844tests_21test_sha3_384_30_bits
FNDA:1,_RNvNtNtNtCslzs1qOtDAlK_9shashasha4sha36sha3844tests_23test_sha3_384_1600_bits
FNDA:1,_RNvNtNtNtCslzs1qOtDAlK_9shashasha4sha36sha3844tests_23test_sha3_384_1605_bits
FNDA:1,_RNvNtNtNtCslzs1qOtDAlK_9shashasha4sha36sha3844tests_23test_sha3_384_1630_bits
FNDA:7,_RNvMs_NtNtCslzs1qOtDAlK_9shashasha4sha36sha384NtB4_8Sha3_3843new
FNDA:1,_RNvXNtNtCslzs1qOtDAlK_9shashasha4sha36sha384NtB2_8Sha3_384NtNtCs6v2AsOoWRgb_4core7default7Default7default
FNDA:1,_RNvXs0_NtNtCslzs1qOtDAlK_9shashasha4sha36sha384NtB5_8Sha3_384INtNtB9_6traits6HasherKj30_E6update
FNDA:7,_RNvXs0_NtNtCslzs1qOtDAlK_9shashasha4sha36sha384NtB5_8Sha3_384INtNtB9_6traits6HasherKj30_E8finalize
FNDA:5,_RNvXs1_NtNtCslzs1qOtDAlK_9shashasha4sha36sha384NtB5_8Sha3_384INtNtB9_6traits10HasherBitsKj30_E11update_bits
FNF:12
FNH:12
DA:26,2
DA:27,2
DA:28,2
DA:34,14
DA:35,14
DA:36,14
DA:37,14
DA:38,14
DA:39,14
DA:40,14
DA:44,2
DA:45,2
DA:46,2
DA:48,14
DA:49,14
DA:50,14
DA:54,10
DA:55,10
DA:56,10
DA:79,2
DA:80,2
DA:81,2
DA:82,2
DA:83,2
DA:84,2
DA:85,2
DA:86,2
DA:89,2
DA:90,2
DA:91,2
DA:92,2
DA:93,2
DA:94,2
DA:95,2
DA:96,2
DA:100,2
DA:101,2
DA:105,2
DA:106,2
DA:107,2
DA:108,2
DA:109,2
DA:110,2
DA:111,2
DA:112,2
DA:113,2
DA:117,2
DA:118,2
DA:119,2
DA:120,2
DA:121,2
DA:122,2
DA:123,2
DA:124,2
DA:125,2
DA:129,2
DA:131,2
DA:132,2
DA:133,2
DA:134,2
DA:135,2
DA:136,2
DA:137,2
DA:138,2
DA:139,2
DA:140,2
DA:144,2
DA:146,2
DA:147,2
DA:148,2
DA:149,2
DA:150,2
DA:151,2
DA:152,2
DA:153,2
DA:154,2
DA:155,2
DA:159,2
DA:161,2
DA:162,2
DA:163,2
DA:164,2
DA:165,2
DA:166,2
DA:167,2
DA:168,2
DA:169,2
DA:170,2
BRF:0
BRH:0
LF:88
LH:88
end_of_record
SF:/home/jozias/projects/rust-lang/shashasha/src/sha3/sha512.rs
FN:79,_RNvNtNtNtCsdCcYIHEm2KI_9shashasha4sha36sha5124tests_20test_sha3_512_0_bits
FN:105,_RNvNtNtNtCsdCcYIHEm2KI_9shashasha4sha36sha5124tests_20test_sha3_512_5_bits
FN:89,_RNvNtNtNtCsdCcYIHEm2KI_9shashasha4sha36sha5124tests_20test_sha3_512_update
FN:117,_RNvNtNtNtCsdCcYIHEm2KI_9shashasha4sha36sha5124tests_21test_sha3_512_30_bits
FN:129,_RNvNtNtNtCsdCcYIHEm2KI_9shashasha4sha36sha5124tests_23test_sha3_512_1600_bits
FN:144,_RNvNtNtNtCsdCcYIHEm2KI_9shashasha4sha36sha5124tests_23test_sha3_512_1605_bits
FN:159,_RNvNtNtNtCsdCcYIHEm2KI_9shashasha4sha36sha5124tests_23test_sha3_512_1630_bits
FN:34,_RNvMs_NtNtCsdCcYIHEm2KI_9shashasha4sha36sha512NtB4_8Sha3_5123new
FN:26,_RNvXNtNtCsdCcYIHEm2KI_9shashasha4sha36sha512NtB2_8Sha3_512NtNtCs6v2AsOoWRgb_4core7default7Default7default
FN:44,_RNvXs0_NtNtCsdCcYIHEm2KI_9shashasha4sha36sha512NtB5_8Sha3_512INtNtB9_6traits6HasherKj40_E6update
FN:48,_RNvXs0_NtNtCsdCcYIHEm2KI_9shashasha4sha36sha512NtB5_8Sha3_512INtNtB9_6traits6HasherKj40_E8finalize
FN:54,_RNvXs1_NtNtCsdCcYIHEm2KI_9shashasha4sha36sha512NtB5_8Sha3_512INtNtB9_6traits10HasherBitsKj40_E11update_bits
FN:79,_RNvNtNtNtCslzs1qOtDAlK_9shashasha4sha36sha5124tests_20test_sha3_512_0_bits
FN:105,_RNvNtNtNtCslzs1qOtDAlK_9shashasha4sha36sha5124tests_20test_sha3_512_5_bits
FN:89,_RNvNtNtNtCslzs1qOtDAlK_9shashasha4sha36sha5124tests_20test_sha3_512_update
FN:117,_RNvNtNtNtCslzs1qOtDAlK_9shashasha4sha36sha5124tests_21test_sha3_512_30_bits
FN:129,_RNvNtNtNtCslzs1qOtDAlK_9shashasha4sha36sha5124tests_23test_sha3_512_1600_bits
FN:144,_RNvNtNtNtCslzs1qOtDAlK_9shashasha4sha36sha5124tests_23test_sha3_512_1605_bits
FN:159,_RNvNtNtNtCslzs1qOtDAlK_9shashasha4sha36sha5124tests_23test_sha3_512_1630_bits
FN:34,_RNvMs_NtNtCslzs1qOtDAlK_9shashasha4sha36sha512NtB4_8Sha3_5123new
FN:26,_RNvXNtNtCslzs1qOtDAlK_9shashasha4sha36sha512NtB2_8Sha3_512NtNtCs6v2AsOoWRgb_4core7default7Default7default
FN:44,_RNvXs0_NtNtCslzs1qOtDAlK_9shashasha4sha36sha512NtB5_8Sha3_512INtNtB9_6traits6HasherKj40_E6update
FN:48,_RNvXs0_NtNtCslzs1qOtDAlK_9shashasha4sha36sha512NtB5_8Sha3_512INtNtB9_6traits6HasherKj40_E8finalize
FN:54,_RNvXs1_NtNtCslzs1qOtDAlK_9shashasha4sha36sha512NtB5_8Sha3_512INtNtB9_6traits10HasherBitsKj40_E11update_bits
FNDA:1,_RNvNtNtNtCsdCcYIHEm2KI_9shashasha4sha36sha5124tests_20test_sha3_512_0_bits
FNDA:1,_RNvNtNtNtCsdCcYIHEm2KI_9shashasha4sha36sha5124tests_20test_sha3_512_5_bits
FNDA:1,_RNvNtNtNtCsdCcYIHEm2KI_9shashasha4sha36sha5124tests_20test_sha3_512_update
FNDA:1,_RNvNtNtNtCsdCcYIHEm2KI_9shashasha4sha36sha5124tests_21test_sha3_512_30_bits
FNDA:1,_RNvNtNtNtCsdCcYIHEm2KI_9shashasha4sha36sha5124tests_23test_sha3_512_1600_bits
FNDA:1,_RNvNtNtNtCsdCcYIHEm2KI_9shashasha4sha36sha5124tests_23test_sha3_512_1605_bits
FNDA:1,_RNvNtNtNtCsdCcYIHEm2KI_9shashasha4sha36sha5124tests_23test_sha3_512_1630_bits
FNDA:7,_RNvMs_NtNtCsdCcYIHEm2KI_9shashasha4sha36sha512NtB4_8Sha3_5123new
FNDA:1,_RNvXNtNtCsdCcYIHEm2KI_9shashasha4sha36sha512NtB2_8Sha3_512NtNtCs6v2AsOoWRgb_4core7default7Default7default
FNDA:1,_RNvXs0_NtNtCsdCcYIHEm2KI_9shashasha4sha36sha512NtB5_8Sha3_512INtNtB9_6traits6HasherKj40_E6update
FNDA:7,_RNvXs0_NtNtCsdCcYIHEm2KI_9shashasha4sha36sha512NtB5_8Sha3_512INtNtB9_6traits6HasherKj40_E8finalize
FNDA:5,_RNvXs1_NtNtCsdCcYIHEm2KI_9shashasha4sha36sha512NtB5_8Sha3_512INtNtB9_6traits10HasherBitsKj40_E11update_bits
FNDA:1,_RNvNtNtNtCslzs1qOtDAlK_9shashasha4sha36sha5124tests_20test_sha3_512_0_bits
FNDA:1,_RNvNtNtNtCslzs1qOtDAlK_9shashasha4sha36sha5124tests_20test_sha3_512_5_bits
FNDA:1,_RNvNtNtNtCslzs1qOtDAlK_9shashasha4sha36sha5124tests_20test_sha3_512_update
FNDA:1,_RNvNtNtNtCslzs1qOtDAlK_9shashasha4sha36sha5124tests_21test_sha3_512_30_bits
FNDA:1,_RNvNtNtNtCslzs1qOtDAlK_9shashasha4sha36sha5124tests_23test_sha3_512_1600_bits
FNDA:1,_RNvNtNtNtCslzs1qOtDAlK_9shashasha4sha36sha5124tests_23test_sha3_512_1605_bits
FNDA:1,_RNvNtNtNtCslzs1qOtDAlK_9shashasha4sha36sha5124tests_23test_sha3_512_1630_bits
FNDA:7,_RNvMs_NtNtCslzs1qOtDAlK_9shashasha4sha36sha512NtB4_8Sha3_5123new
FNDA:1,_RNvXNtNtCslzs1qOtDAlK_9shashasha4sha36sha512NtB2_8Sha3_512NtNtCs6v2AsOoWRgb_4core7default7Default7default
FNDA:1,_RNvXs0_NtNtCslzs1qOtDAlK_9shashasha4sha36sha512NtB5_8Sha3_512INtNtB9_6traits6HasherKj40_E6update
FNDA:7,_RNvXs0_NtNtCslzs1qOtDAlK_9shashasha4sha36sha512NtB5_8Sha3_512INtNtB9_6traits6HasherKj40_E8finalize
FNDA:5,_RNvXs1_NtNtCslzs1qOtDAlK_9shashasha4sha36sha512NtB5_8Sha3_512INtNtB9_6traits10HasherBitsKj40_E11update_bits
FNF:12
FNH:12
DA:26,2
DA:27,2
DA:28,2
DA:34,14
DA:35,14
DA:36,14
DA:37,14
DA:38,14
DA:39,14
DA:40,14
DA:44,2
DA:45,2
DA:46,2
DA:48,14
DA:49,14
DA:50,14
DA:54,10
DA:55,10
DA:56,10
DA:79,2
DA:80,2
DA:81,2
DA:82,2
DA:83,2
DA:84,2
DA:85,2
DA:86,2
DA:89,2
DA:90,2
DA:91,2
DA:92,2
DA:93,2
DA:94,2
DA:95,2
DA:96,2
DA:100,2
DA:101,2
DA:105,2
DA:106,2
DA:107,2
DA:108,2
DA:109,2
DA:110,2
DA:111,2
DA:112,2
DA:113,2
DA:117,2
DA:118,2
DA:119,2
DA:120,2
DA:121,2
DA:122,2
DA:123,2
DA:124,2
DA:125,2
DA:129,2
DA:131,2
DA:132,2
DA:133,2
DA:134,2
DA:135,2
DA:136,2
DA:137,2
DA:138,2
DA:139,2
DA:140,2
DA:144,2
DA:146,2
DA:147,2
DA:148,2
DA:149,2
DA:150,2
DA:151,2
DA:152,2
DA:153,2
DA:154,2
DA:155,2
DA:159,2
DA:161,2
DA:162,2
DA:163,2
DA:164,2
DA:165,2
DA:166,2
DA:167,2
DA:168,2
DA:169,2
DA:170,2
BRF:0
BRH:0
LF:88
LH:88
end_of_record
SF:/home/jozias/projects/rust-lang/shashasha/src/shake/mod.rs
FN:29,_RNvMNtCsdCcYIHEm2KI_9shashasha5shakeNtB2_5Shake11update_bits
FN:24,_RNvMNtCsdCcYIHEm2KI_9shashasha5shakeNtB2_5Shake6update
FN:34,_RNvMNtCsdCcYIHEm2KI_9shashasha5shakeNtB2_5Shake8finalize
FN:48,_RNvMNtCsdCcYIHEm2KI_9shashasha5shakeNtB2_5Shake8get_bits
FN:42,_RNvMNtCsdCcYIHEm2KI_9shashasha5shakeNtB2_5Shake9get_bytes
FN:29,_RNvMNtCslzs1qOtDAlK_9shashasha5shakeNtB2_5Shake11update_bits
FN:24,_RNvMNtCslzs1qOtDAlK_9shashasha5shakeNtB2_5Shake6update
FN:34,_RNvMNtCslzs1qOtDAlK_9shashasha5shakeNtB2_5Shake8finalize
FN:48,_RNvMNtCslzs1qOtDAlK_9shashasha5shakeNtB2_5Shake8get_bits
FN:42,_RNvMNtCslzs1qOtDAlK_9shashasha5shakeNtB2_5Shake9get_bytes
FNDA:10,_RNvMNtCsdCcYIHEm2KI_9shashasha5shakeNtB2_5Shake11update_bits
FNDA:2,_RNvMNtCsdCcYIHEm2KI_9shashasha5shakeNtB2_5Shake6update
FNDA:20,_RNvMNtCsdCcYIHEm2KI_9shashasha5shakeNtB2_5Shake8finalize
FNDA:8,_RNvMNtCsdCcYIHEm2KI_9shashasha5shakeNtB2_5Shake8get_bits
FNDA:2068,_RNvMNtCsdCcYIHEm2KI_9shashasha5shakeNtB2_5Shake9get_bytes
FNDA:10,_RNvMNtCslzs1qOtDAlK_9shashasha5shakeNtB2_5Shake11update_bits
FNDA:2,_RNvMNtCslzs1qOtDAlK_9shashasha5shakeNtB2_5Shake6update
FNDA:20,_RNvMNtCslzs1qOtDAlK_9shashasha5shakeNtB2_5Shake8finalize
FNDA:8,_RNvMNtCslzs1qOtDAlK_9shashasha5shakeNtB2_5Shake8get_bits
FNDA:2068,_RNvMNtCslzs1qOtDAlK_9shashasha5shakeNtB2_5Shake9get_bytes
FNF:5
FNH:5
DA:24,4
DA:26,4
DA:27,4
DA:29,20
DA:31,20
DA:32,20
DA:34,40
DA:36,40
DA:38,40
DA:39,40
DA:40,40
DA:42,4136
DA:44,4136
DA:45,4136
DA:46,4136
DA:48,16
DA:49,16
DA:50,16
DA:51,16
DA:52,16
DA:54,16
DA:55,16
DA:56,16
BRF:0
BRH:0
LF:23
LH:23
end_of_record
SF:/home/jozias/projects/rust-lang/shashasha/src/shake/shake128.rs
FN:407,_RNvNtNtNtCsdCcYIHEm2KI_9shashasha5shake8shake1284tests_20test_shake128_0_bits
FN:492,_RNvNtNtNtCsdCcYIHEm2KI_9shashasha5shake8shake1284tests_20test_shake128_5_bits
FN:505,_RNvNtNtNtCsdCcYIHEm2KI_9shashasha5shake8shake1284tests_21test_shake128_30_bits
FN:518,_RNvNtNtNtCsdCcYIHEm2KI_9shashasha5shake8shake1284tests_23test_shake128_1600_bits
FN:534,_RNvNtNtNtCsdCcYIHEm2KI_9shashasha5shake8shake1284tests_23test_shake128_1605_bits
FN:550,_RNvNtNtNtCsdCcYIHEm2KI_9shashasha5shake8shake1284tests_23test_shake128_1630_bits
FN:418,_RNvNtNtNtCsdCcYIHEm2KI_9shashasha5shake8shake1284tests_25test_shake128_0_bits_iter
FN:479,_RNvNtNtNtCsdCcYIHEm2KI_9shashasha5shake8shake1284tests_32test_shake128_0_bits_in_4088_out
FN:449,_RNvNtNtNtCsdCcYIHEm2KI_9shashasha5shake8shake1284tests_32test_shake128_0_bits_in_4094_out
FN:461,_RNvNtNtNtCsdCcYIHEm2KI_9shashasha5shake8shake1284tests_38test_shake128_0_bits_in_2048_out_twice
FN:433,_RNvNtNtNtCsdCcYIHEm2KI_9shashasha5shake8shake1284tests_39test_shake128_0_bits_iter_auto_finalize
FN:29,_RNvMNtNtCsdCcYIHEm2KI_9shashasha5shake8shake128NtB2_8Shake1283new
FN:48,_RNvXs0_NtNtCsdCcYIHEm2KI_9shashasha5shake8shake128NtB5_8Shake128NtNtNtNtCs6v2AsOoWRgb_4core4iter6traits8iterator8Iterator4next
FN:63,_RNvXs1_NtNtCsdCcYIHEm2KI_9shashasha5shake8shake128NtB5_8Shake128NtNtB9_6traits9XofHasher6update
FN:67,_RNvXs1_NtNtCsdCcYIHEm2KI_9shashasha5shake8shake128NtB5_8Shake128NtNtB9_6traits9XofHasher8finalize
FN:73,_RNvXs1_NtNtCsdCcYIHEm2KI_9shashasha5shake8shake128NtB5_8Shake128NtNtB9_6traits9XofHasher9get_bytes
FN:79,_RNvXs2_NtNtCsdCcYIHEm2KI_9shashasha5shake8shake128NtB5_8Shake128NtNtB9_6traits13XofHasherBits11update_bits
FN:83,_RNvXs2_NtNtCsdCcYIHEm2KI_9shashasha5shake8shake128NtB5_8Shake128NtNtB9_6traits13XofHasherBits8get_bits
FN:40,_RNvXs_NtNtCsdCcYIHEm2KI_9shashasha5shake8shake128NtB4_8Shake128NtNtCs6v2AsOoWRgb_4core7default7Default7default
FN:29,_RNvMNtNtCslzs1qOtDAlK_9shashasha5shake8shake128NtB2_8Shake1283new
FN:48,_RNvXs0_NtNtCslzs1qOtDAlK_9shashasha5shake8shake128NtB5_8Shake128NtNtNtNtCs6v2AsOoWRgb_4core4iter6traits8iterator8Iterator4next
FN:63,_RNvXs1_NtNtCslzs1qOtDAlK_9shashasha5shake8shake128NtB5_8Shake128NtNtB9_6traits9XofHasher6update
FN:67,_RNvXs1_NtNtCslzs1qOtDAlK_9shashasha5shake8shake128NtB5_8Shake128NtNtB9_6traits9XofHasher8finalize
FN:73,_RNvXs1_NtNtCslzs1qOtDAlK_9shashasha5shake8shake128NtB5_8Shake128NtNtB9_6traits9XofHasher9get_bytes
FN:79,_RNvXs2_NtNtCslzs1qOtDAlK_9shashasha5shake8shake128NtB5_8Shake128NtNtB9_6traits13XofHasherBits11update_bits
FN:83,_RNvXs2_NtNtCslzs1qOtDAlK_9shashasha5shake8shake128NtB5_8Shake128NtNtB9_6traits13XofHasherBits8get_bits
FN:40,_RNvXs_NtNtCslzs1qOtDAlK_9shashasha5shake8shake128NtB4_8Shake128NtNtCs6v2AsOoWRgb_4core7default7Default7default
FN:407,_RNvNtNtNtCslzs1qOtDAlK_9shashasha5shake8shake1284tests_20test_shake128_0_bits
FN:492,_RNvNtNtNtCslzs1qOtDAlK_9shashasha5shake8shake1284tests_20test_shake128_5_bits
FN:505,_RNvNtNtNtCslzs1qOtDAlK_9shashasha5shake8shake1284tests_21test_shake128_30_bits
FN:518,_RNvNtNtNtCslzs1qOtDAlK_9shashasha5shake8shake1284tests_23test_shake128_1600_bits
FN:534,_RNvNtNtNtCslzs1qOtDAlK_9shashasha5shake8shake1284tests_23test_shake128_1605_bits
FN:550,_RNvNtNtNtCslzs1qOtDAlK_9shashasha5shake8shake1284tests_23test_shake128_1630_bits
FN:418,_RNvNtNtNtCslzs1qOtDAlK_9shashasha5shake8shake1284tests_25test_shake128_0_bits_iter
FN:479,_RNvNtNtNtCslzs1qOtDAlK_9shashasha5shake8shake1284tests_32test_shake128_0_bits_in_4088_out
FN:449,_RNvNtNtNtCslzs1qOtDAlK_9shashasha5shake8shake1284tests_32test_shake128_0_bits_in_4094_out
FN:461,_RNvNtNtNtCslzs1qOtDAlK_9shashasha5shake8shake1284tests_38test_shake128_0_bits_in_2048_out_twice
FN:433,_RNvNtNtNtCslzs1qOtDAlK_9shashasha5shake8shake1284tests_39test_shake128_0_bits_iter_auto_finalize
FNDA:1,_RNvNtNtNtCsdCcYIHEm2KI_9shashasha5shake8shake1284tests_20test_shake128_0_bits
FNDA:1,_RNvNtNtNtCsdCcYIHEm2KI_9shashasha5shake8shake1284tests_20test_shake128_5_bits
FNDA:1,_RNvNtNtNtCsdCcYIHEm2KI_9shashasha5shake8shake1284tests_21test_shake128_30_bits
FNDA:1,_RNvNtNtNtCsdCcYIHEm2KI_9shashasha5shake8shake1284tests_23test_shake128_1600_bits
FNDA:1,_RNvNtNtNtCsdCcYIHEm2KI_9shashasha5shake8shake1284tests_23test_shake128_1605_bits
FNDA:1,_RNvNtNtNtCsdCcYIHEm2KI_9shashasha5shake8shake1284tests_23test_shake128_1630_bits
FNDA:1,_RNvNtNtNtCsdCcYIHEm2KI_9shashasha5shake8shake1284tests_25test_shake128_0_bits_iter
FNDA:1,_RNvNtNtNtCsdCcYIHEm2KI_9shashasha5shake8shake1284tests_32test_shake128_0_bits_in_4088_out
FNDA:1,_RNvNtNtNtCsdCcYIHEm2KI_9shashasha5shake8shake1284tests_32test_shake128_0_bits_in_4094_out
FNDA:1,_RNvNtNtNtCsdCcYIHEm2KI_9shashasha5shake8shake1284tests_38test_shake128_0_bits_in_2048_out_twice
FNDA:1,_RNvNtNtNtCsdCcYIHEm2KI_9shashasha5shake8shake1284tests_39test_shake128_0_bits_iter_auto_finalize
FNDA:11,_RNvMNtNtCsdCcYIHEm2KI_9shashasha5shake8shake128NtB2_8Shake1283new
FNDA:1028,_RNvXs0_NtNtCsdCcYIHEm2KI_9shashasha5shake8shake128NtB5_8Shake128NtNtNtNtCs6v2AsOoWRgb_4core4iter6traits8iterator8Iterator4next
FNDA:1,_RNvXs1_NtNtCsdCcYIHEm2KI_9shashasha5shake8shake128NtB5_8Shake128NtNtB9_6traits9XofHasher6update
FNDA:11,_RNvXs1_NtNtCsdCcYIHEm2KI_9shashasha5shake8shake128NtB5_8Shake128NtNtB9_6traits9XofHasher8finalize
FNDA:1034,_RNvXs1_NtNtCsdCcYIHEm2KI_9shashasha5shake8shake128NtB5_8Shake128NtNtB9_6traits9XofHasher9get_bytes
FNDA:5,_RNvXs2_NtNtCsdCcYIHEm2KI_9shashasha5shake8shake128NtB5_8Shake128NtNtB9_6traits13XofHasherBits11update_bits
FNDA:4,_RNvXs2_NtNtCsdCcYIHEm2KI_9shashasha5shake8shake128NtB5_8Shake128NtNtB9_6traits13XofHasherBits8get_bits
FNDA:1,_RNvXs_NtNtCsdCcYIHEm2KI_9shashasha5shake8shake128NtB4_8Shake128NtNtCs6v2AsOoWRgb_4core7default7Default7default
FNDA:11,_RNvMNtNtCslzs1qOtDAlK_9shashasha5shake8shake128NtB2_8Shake1283new
FNDA:1028,_RNvXs0_NtNtCslzs1qOtDAlK_9shashasha5shake8shake128NtB5_8Shake128NtNtNtNtCs6v2AsOoWRgb_4core4iter6traits8iterator8Iterator4next
FNDA:1,_RNvXs1_NtNtCslzs1qOtDAlK_9shashasha5shake8shake128NtB5_8Shake128NtNtB9_6traits9XofHasher6update
FNDA:11,_RNvXs1_NtNtCslzs1qOtDAlK_9shashasha5shake8shake128NtB5_8Shake128NtNtB9_6traits9XofHasher8finalize
FNDA:1034,_RNvXs1_NtNtCslzs1qOtDAlK_9shashasha5shake8shake128NtB5_8Shake128NtNtB9_6traits9XofHasher9get_bytes
FNDA:5,_RNvXs2_NtNtCslzs1qOtDAlK_9shashasha5shake8shake128NtB5_8Shake128NtNtB9_6traits13XofHasherBits11update_bits
FNDA:4,_RNvXs2_NtNtCslzs1qOtDAlK_9shashasha5shake8shake128NtB5_8Shake128NtNtB9_6traits13XofHasherBits8get_bits
FNDA:1,_RNvXs_NtNtCslzs1qOtDAlK_9shashasha5shake8shake128NtB4_8Shake128NtNtCs6v2AsOoWRgb_4core7default7Default7default
FNDA:1,_RNvNtNtNtCslzs1qOtDAlK_9shashasha5shake8shake1284tests_20test_shake128_0_bits
FNDA:1,_RNvNtNtNtCslzs1qOtDAlK_9shashasha5shake8shake1284tests_20test_shake128_5_bits
FNDA:1,_RNvNtNtNtCslzs1qOtDAlK_9shashasha5shake8shake1284tests_21test_shake128_30_bits
FNDA:1,_RNvNtNtNtCslzs1qOtDAlK_9shashasha5shake8shake1284tests_23test_shake128_1600_bits
FNDA:1,_RNvNtNtNtCslzs1qOtDAlK_9shashasha5shake8shake1284tests_23test_shake128_1605_bits
FNDA:1,_RNvNtNtNtCslzs1qOtDAlK_9shashasha5shake8shake1284tests_23test_shake128_1630_bits
FNDA:1,_RNvNtNtNtCslzs1qOtDAlK_9shashasha5shake8shake1284tests_25test_shake128_0_bits_iter
FNDA:1,_RNvNtNtNtCslzs1qOtDAlK_9shashasha5shake8shake1284tests_32test_shake128_0_bits_in_4088_out
FNDA:1,_RNvNtNtNtCslzs1qOtDAlK_9shashasha5shake8shake1284tests_32test_shake128_0_bits_in_4094_out
FNDA:1,_RNvNtNtNtCslzs1qOtDAlK_9shashasha5shake8shake1284tests_38test_shake128_0_bits_in_2048_out_twice
FNDA:1,_RNvNtNtNtCslzs1qOtDAlK_9shashasha5shake8shake1284tests_39test_shake128_0_bits_iter_auto_finalize
FNF:19
FNH:19
DA:29,22
DA:30,22
DA:31,22
DA:32,22
DA:33,22
DA:34,22
DA:35,22
DA:36,22
DA:40,2
DA:41,2
DA:42,2
DA:48,2056
DA:49,2056
DA:50,0
DA:52,2056
DA:53,2056
DA:54,2056
DA:56,0
DA:59,2056
DA:63,2
DA:64,2
DA:65,2
DA:67,22
DA:68,22
DA:69,22
DA:70,22
DA:71,22
DA:73,2068
DA:74,2068
DA:75,2068
DA:79,10
DA:80,10
DA:81,10
DA:83,8
DA:84,8
DA:85,8
DA:407,2
DA:408,2
DA:409,2
DA:410,2
DA:411,2
DA:412,2
DA:413,2
DA:414,2
DA:415,2
DA:418,2
DA:419,2
DA:420,2
DA:421,2
DA:422,2
DA:423,2
DA:424,2
DA:425,2
DA:426,2
DA:427,2
DA:428,2
DA:429,2
DA:430,2
DA:433,2
DA:434,2
DA:435,2
DA:436,2
DA:437,2
DA:438,2
DA:439,2
DA:440,2
DA:441,2
DA:442,2
DA:443,2
DA:444,2
DA:445,2
DA:449,2
DA:450,2
DA:451,2
DA:452,2
DA:453,2
DA:454,2
DA:455,2
DA:456,2
DA:457,2
DA:458,2
DA:461,2
DA:463,2
DA:464,2
DA:465,2
DA:466,2
DA:467,2
DA:468,2
DA:469,2
DA:470,2
DA:471,2
DA:472,2
DA:473,2
DA:474,2
DA:475,2
DA:479,2
DA:480,2
DA:481,2
DA:482,2
DA:483,2
DA:484,2
DA:485,2
DA:486,2
DA:487,2
DA:488,2
DA:492,2
DA:493,2
DA:494,2
DA:495,2
DA:496,2
DA:497,2
DA:498,2
DA:499,2
DA:500,2
DA:501,2
DA:505,2
DA:506,2
DA:507,2
DA:508,2
DA:509,2
DA:510,2
DA:511,2
DA:512,2
DA:513,2
DA:514,2
DA:518,2
DA:520,2
DA:521,2
DA:522,2
DA:523,2
DA:524,2
DA:525,2
DA:526,2
DA:527,2
DA:528,2
DA:529,2
DA:530,2
DA:534,2
DA:536,2
DA:537,2
DA:538,2
DA:539,2
DA:540,2
DA:541,2
DA:542,2
DA:543,2
DA:544,2
DA:545,2
DA:546,2
DA:550,2
DA:552,2
DA:553,2
DA:554,2
DA:555,2
DA:556,2
DA:557,2
DA:558,2
DA:559,2
DA:560,2
DA:561,2
DA:562,2
BRF:0
BRH:0
LF:161
LH:159
end_of_record
SF:/home/jozias/projects/rust-lang/shashasha/src/shake/shake256.rs
FN:327,_RNvNtNtNtCsdCcYIHEm2KI_9shashasha5shake8shake2564tests_20test_shake256_0_bits
FN:369,_RNvNtNtNtCsdCcYIHEm2KI_9shashasha5shake8shake2564tests_20test_shake256_5_bits
FN:382,_RNvNtNtNtCsdCcYIHEm2KI_9shashasha5shake8shake2564tests_21test_shake256_30_bits
FN:442,_RNvNtNtNtCsdCcYIHEm2KI_9shashasha5shake8shake2564tests_22test_shake256_get_bits
FN:395,_RNvNtNtNtCsdCcYIHEm2KI_9shashasha5shake8shake2564tests_23test_shake256_1600_bits
FN:411,_RNvNtNtNtCsdCcYIHEm2KI_9shashasha5shake8shake2564tests_23test_shake256_1605_bits
FN:427,_RNvNtNtNtCsdCcYIHEm2KI_9shashasha5shake8shake2564tests_23test_shake256_1630_bits
FN:338,_RNvNtNtNtCsdCcYIHEm2KI_9shashasha5shake8shake2564tests_25test_shake256_0_bits_iter
FN:353,_RNvNtNtNtCsdCcYIHEm2KI_9shashasha5shake8shake2564tests_39test_shake128_0_bits_iter_auto_finalize
FN:29,_RNvMNtNtCsdCcYIHEm2KI_9shashasha5shake8shake256NtB2_8Shake2563new
FN:48,_RNvXs0_NtNtCsdCcYIHEm2KI_9shashasha5shake8shake256NtB5_8Shake256NtNtNtNtCs6v2AsOoWRgb_4core4iter6traits8iterator8Iterator4next
FN:63,_RNvXs1_NtNtCsdCcYIHEm2KI_9shashasha5shake8shake256NtB5_8Shake256NtNtB9_6traits9XofHasher6update
FN:67,_RNvXs1_NtNtCsdCcYIHEm2KI_9shashasha5shake8shake256NtB5_8Shake256NtNtB9_6traits9XofHasher8finalize
FN:73,_RNvXs1_NtNtCsdCcYIHEm2KI_9shashasha5shake8shake256NtB5_8Shake256NtNtB9_6traits9XofHasher9get_bytes
FN:79,_RNvXs2_NtNtCsdCcYIHEm2KI_9shashasha5shake8shake256NtB5_8Shake256NtNtB9_6traits13XofHasherBits11update_bits
FN:83,_RNvXs2_NtNtCsdCcYIHEm2KI_9shashasha5shake8shake256NtB5_8Shake256NtNtB9_6traits13XofHasherBits8get_bits
FN:40,_RNvXs_NtNtCsdCcYIHEm2KI_9shashasha5shake8shake256NtB4_8Shake256NtNtCs6v2AsOoWRgb_4core7default7Default7default
FN:327,_RNvNtNtNtCslzs1qOtDAlK_9shashasha5shake8shake2564tests_20test_shake256_0_bits
FN:369,_RNvNtNtNtCslzs1qOtDAlK_9shashasha5shake8shake2564tests_20test_shake256_5_bits
FN:382,_RNvNtNtNtCslzs1qOtDAlK_9shashasha5shake8shake2564tests_21test_shake256_30_bits
FN:442,_RNvNtNtNtCslzs1qOtDAlK_9shashasha5shake8shake2564tests_22test_shake256_get_bits
FN:395,_RNvNtNtNtCslzs1qOtDAlK_9shashasha5shake8shake2564tests_23test_shake256_1600_bits
FN:411,_RNvNtNtNtCslzs1qOtDAlK_9shashasha5shake8shake2564tests_23test_shake256_1605_bits
FN:427,_RNvNtNtNtCslzs1qOtDAlK_9shashasha5shake8shake2564tests_23test_shake256_1630_bits
FN:338,_RNvNtNtNtCslzs1qOtDAlK_9shashasha5shake8shake2564tests_25test_shake256_0_bits_iter
FN:353,_RNvNtNtNtCslzs1qOtDAlK_9shashasha5shake8shake2564tests_39test_shake128_0_bits_iter_auto_finalize
FN:29,_RNvMNtNtCslzs1qOtDAlK_9shashasha5shake8shake256NtB2_8Shake2563new
FN:48,_RNvXs0_NtNtCslzs1qOtDAlK_9shashasha5shake8shake256NtB5_8Shake256NtNtNtNtCs6v2AsOoWRgb_4core4iter6traits8iterator8Iterator4next
FN:63,_RNvXs1_NtNtCslzs1qOtDAlK_9shashasha5shake8shake256NtB5_8Shake256NtNtB9_6traits9XofHasher6update
FN:67,_RNvXs1_NtNtCslzs1qOtDAlK_9shashasha5shake8shake256NtB5_8Shake256NtNtB9_6traits9XofHasher8finalize
FN:73,_RNvXs1_NtNtCslzs1qOtDAlK_9shashasha5shake8shake256NtB5_8Shake256NtNtB9_6traits9XofHasher9get_bytes
FN:79,_RNvXs2_NtNtCslzs1qOtDAlK_9shashasha5shake8shake256NtB5_8Shake256NtNtB9_6traits13XofHasherBits11update_bits
FN:83,_RNvXs2_NtNtCslzs1qOtDAlK_9shashasha5shake8shake256NtB5_8Shake256NtNtB9_6traits13XofHasherBits8get_bits
FN:40,_RNvXs_NtNtCslzs1qOtDAlK_9shashasha5shake8shake256NtB4_8Shake256NtNtCs6v2AsOoWRgb_4core7default7Default7default
FNDA:1,_RNvNtNtNtCsdCcYIHEm2KI_9shashasha5shake8shake2564tests_20test_shake256_0_bits
FNDA:1,_RNvNtNtNtCsdCcYIHEm2KI_9shashasha5shake8shake2564tests_20test_shake256_5_bits
FNDA:1,_RNvNtNtNtCsdCcYIHEm2KI_9shashasha5shake8shake2564tests_21test_shake256_30_bits
FNDA:1,_RNvNtNtNtCsdCcYIHEm2KI_9shashasha5shake8shake2564tests_22test_shake256_get_bits
FNDA:1,_RNvNtNtNtCsdCcYIHEm2KI_9shashasha5shake8shake2564tests_23test_shake256_1600_bits
FNDA:1,_RNvNtNtNtCsdCcYIHEm2KI_9shashasha5shake8shake2564tests_23test_shake256_1605_bits
FNDA:1,_RNvNtNtNtCsdCcYIHEm2KI_9shashasha5shake8shake2564tests_23test_shake256_1630_bits
FNDA:1,_RNvNtNtNtCsdCcYIHEm2KI_9shashasha5shake8shake2564tests_25test_shake256_0_bits_iter
FNDA:1,_RNvNtNtNtCsdCcYIHEm2KI_9shashasha5shake8shake2564tests_39test_shake128_0_bits_iter_auto_finalize
FNDA:9,_RNvMNtNtCsdCcYIHEm2KI_9shashasha5shake8shake256NtB2_8Shake2563new
FNDA:1028,_RNvXs0_NtNtCsdCcYIHEm2KI_9shashasha5shake8shake256NtB5_8Shake256NtNtNtNtCs6v2AsOoWRgb_4core4iter6traits8iterator8Iterator4next
FNDA:1,_RNvXs1_NtNtCsdCcYIHEm2KI_9shashasha5shake8shake256NtB5_8Shake256NtNtB9_6traits9XofHasher6update
FNDA:9,_RNvXs1_NtNtCsdCcYIHEm2KI_9shashasha5shake8shake256NtB5_8Shake256NtNtB9_6traits9XofHasher8finalize
FNDA:1034,_RNvXs1_NtNtCsdCcYIHEm2KI_9shashasha5shake8shake256NtB5_8Shake256NtNtB9_6traits9XofHasher9get_bytes
FNDA:5,_RNvXs2_NtNtCsdCcYIHEm2KI_9shashasha5shake8shake256NtB5_8Shake256NtNtB9_6traits13XofHasherBits11update_bits
FNDA:4,_RNvXs2_NtNtCsdCcYIHEm2KI_9shashasha5shake8shake256NtB5_8Shake256NtNtB9_6traits13XofHasherBits8get_bits
FNDA:1,_RNvXs_NtNtCsdCcYIHEm2KI_9shashasha5shake8shake256NtB4_8Shake256NtNtCs6v2AsOoWRgb_4core7default7Default7default
FNDA:1,_RNvNtNtNtCslzs1qOtDAlK_9shashasha5shake8shake2564tests_20test_shake256_0_bits
FNDA:1,_RNvNtNtNtCslzs1qOtDAlK_9shashasha5shake8shake2564tests_20test_shake256_5_bits
FNDA:1,_RNvNtNtNtCslzs1qOtDAlK_9shashasha5shake8shake2564tests_21test_shake256_30_bits
FNDA:1,_RNvNtNtNtCslzs1qOtDAlK_9shashasha5shake8shake2564tests_22test_shake256_get_bits
FNDA:1,_RNvNtNtNtCslzs1qOtDAlK_9shashasha5shake8shake2564tests_23test_shake256_1600_bits
FNDA:1,_RNvNtNtNtCslzs1qOtDAlK_9shashasha5shake8shake2564tests_23test_shake256_1605_bits
FNDA:1,_RNvNtNtNtCslzs1qOtDAlK_9shashasha5shake8shake2564tests_23test_shake256_1630_bits
FNDA:1,_RNvNtNtNtCslzs1qOtDAlK_9shashasha5shake8shake2564tests_25test_shake256_0_bits_iter
FNDA:1,_RNvNtNtNtCslzs1qOtDAlK_9shashasha5shake8shake2564tests_39test_shake128_0_bits_iter_auto_finalize
FNDA:9,_RNvMNtNtCslzs1qOtDAlK_9shashasha5shake8shake256NtB2_8Shake2563new
FNDA:1028,_RNvXs0_NtNtCslzs1qOtDAlK_9shashasha5shake8shake256NtB5_8Shake256NtNtNtNtCs6v2AsOoWRgb_4core4iter6traits8iterator8Iterator4next
FNDA:1,_RNvXs1_NtNtCslzs1qOtDAlK_9shashasha5shake8shake256NtB5_8Shake256NtNtB9_6traits9XofHasher6update
FNDA:9,_RNvXs1_NtNtCslzs1qOtDAlK_9shashasha5shake8shake256NtB5_8Shake256NtNtB9_6traits9XofHasher8finalize
FNDA:1034,_RNvXs1_NtNtCslzs1qOtDAlK_9shashasha5shake8shake256NtB5_8Shake256NtNtB9_6traits9XofHasher9get_bytes
FNDA:5,_RNvXs2_NtNtCslzs1qOtDAlK_9shashasha5shake8shake256NtB5_8Shake256NtNtB9_6traits13XofHasherBits11update_bits
FNDA:4,_RNvXs2_NtNtCslzs1qOtDAlK_9shashasha5shake8shake256NtB5_8Shake256NtNtB9_6traits13XofHasherBits8get_bits
FNDA:1,_RNvXs_NtNtCslzs1qOtDAlK_9shashasha5shake8shake256NtB4_8Shake256NtNtCs6v2AsOoWRgb_4core7default7Default7default
FNF:17
FNH:17
DA:29,18
DA:30,18
DA:31,18
DA:32,18
DA:33,18
DA:34,18
DA:35,18
DA:36,18
DA:40,2
DA:41,2
DA:42,2
DA:48,2056
DA:49,2056
DA:50,0
DA:52,2056
DA:53,2056
DA:54,2056
DA:56,0
DA:59,2056
DA:63,2
DA:64,2
DA:65,2
DA:67,18
DA:68,18
DA:69,18
DA:70,18
DA:71,18
DA:73,2068
DA:74,2068
DA:75,2068
DA:79,10
DA:80,10
DA:81,10
DA:83,8
DA:84,8
DA:85,8
DA:327,2
DA:328,2
DA:329,2
DA:330,2
DA:331,2
DA:332,2
DA:333,2
DA:334,2
DA:335,2
DA:338,2
DA:339,2
DA:340,2
DA:341,2
DA:342,2
DA:343,2
DA:344,2
DA:345,2
DA:346,2
DA:347,2
DA:348,2
DA:349,2
DA:350,2
DA:353,2
DA:354,2
DA:355,2
DA:356,2
DA:357,2
DA:358,2
DA:359,2
DA:360,2
DA:361,2
DA:362,2
DA:363,2
DA:364,2
DA:365,2
DA:369,2
DA:370,2
DA:371,2
DA:372,2
DA:373,2
DA:374,2
DA:375,2
DA:376,2
DA:377,2
DA:378,2
DA:382,2
DA:383,2
DA:384,2
DA:385,2
DA:386,2
DA:387,2
DA:388,2
DA:389,2
DA:390,2
DA:391,2
DA:395,2
DA:397,2
DA:398,2
DA:399,2
DA:400,2
DA:401,2
DA:402,2
DA:403,2
DA:404,2
DA:405,2
DA:406,2
DA:407,2
DA:411,2
DA:413,2
DA:414,2
DA:415,2
DA:416,2
DA:417,2
DA:418,2
DA:419,2
DA:420,2
DA:421,2
DA:422,2
DA:423,2
DA:427,2
DA:429,2
DA:430,2
DA:431,2
DA:432,2
DA:433,2
DA:434,2
DA:435,2
DA:436,2
DA:437,2
DA:438,2
DA:439,2
DA:442,2
DA:443,2
DA:444,2
DA:445,2
DA:446,2
DA:447,2
DA:448,2
DA:449,2
DA:450,2
DA:451,2
DA:452,2
DA:453,2
DA:454,2
DA:455,2
DA:456,2
DA:457,2
DA:458,2
DA:459,2
DA:460,2
DA:461,2
DA:462,2
DA:463,2
BRF:0
BRH:0
LF:149
LH:147
end_of_record
SF:/home/jozias/projects/rust-lang/shashasha/src/sponge/mod.rs
FN:62,_RNvMs_NtCsdCcYIHEm2KI_9shashasha6spongeNtB4_16Keccak1600Sponge11fill_output
FN:34,_RNvMs_NtCsdCcYIHEm2KI_9shashasha6spongeNtB4_16Keccak1600Sponge3new
FN:57,_RNvMs_NtCsdCcYIHEm2KI_9shashasha6spongeNtB4_16Keccak1600Sponge6keccak
FN:78,_RNvMs_NtCsdCcYIHEm2KI_9shashasha6spongeNtB4_16Keccak1600Sponge7squeeze
FN:89,_RNvMs_NtCsdCcYIHEm2KI_9shashasha6spongeNtB4_16Keccak1600Sponge9squeeze_b
FN:44,_RNvMs_NtCsdCcYIHEm2KI_9shashasha6spongeNtB4_16Keccak1600Sponge9xor_block
FN:171,_RNvNtCsdCcYIHEm2KI_9shashasha6sponge10pad10star1
FN:188,_RNvNtCsdCcYIHEm2KI_9shashasha6sponge8zero_pad
FN:26,_RNvXNtCsdCcYIHEm2KI_9shashasha6spongeNtB2_16Keccak1600SpongeNtNtCs6v2AsOoWRgb_4core7default7Default7default
FN:121,_RNvXs0_NtCsdCcYIHEm2KI_9shashasha6spongeNtB5_16Keccak1600SpongeNtNtB7_6traits6Sponge11update_bits
FN:126,_RNvXs0_NtCsdCcYIHEm2KI_9shashasha6spongeNtB5_16Keccak1600SpongeNtNtB7_6traits6Sponge6absorb
FN:116,_RNvXs0_NtCsdCcYIHEm2KI_9shashasha6spongeNtB5_16Keccak1600SpongeNtNtB7_6traits6Sponge6update
FN:158,_RNvXs0_NtCsdCcYIHEm2KI_9shashasha6spongeNtB5_16Keccak1600SpongeNtNtB7_6traits6Sponge7squeeze
FN:166,_RNvXs0_NtCsdCcYIHEm2KI_9shashasha6spongeNtB5_16Keccak1600SpongeNtNtB7_6traits6Sponge9squeeze_b
FN:198,_RNvNtNtCsdCcYIHEm2KI_9shashasha6sponge4tests_29test_keccak1600_default_works
FN:198,_RNvNtNtCslzs1qOtDAlK_9shashasha6sponge4tests_29test_keccak1600_default_works
FN:62,_RNvMs_NtCslzs1qOtDAlK_9shashasha6spongeNtB4_16Keccak1600Sponge11fill_output
FN:34,_RNvMs_NtCslzs1qOtDAlK_9shashasha6spongeNtB4_16Keccak1600Sponge3new
FN:57,_RNvMs_NtCslzs1qOtDAlK_9shashasha6spongeNtB4_16Keccak1600Sponge6keccak
FN:78,_RNvMs_NtCslzs1qOtDAlK_9shashasha6spongeNtB4_16Keccak1600Sponge7squeeze
FN:89,_RNvMs_NtCslzs1qOtDAlK_9shashasha6spongeNtB4_16Keccak1600Sponge9squeeze_b
FN:44,_RNvMs_NtCslzs1qOtDAlK_9shashasha6spongeNtB4_16Keccak1600Sponge9xor_block
FN:171,_RNvNtCslzs1qOtDAlK_9shashasha6sponge10pad10star1
FN:188,_RNvNtCslzs1qOtDAlK_9shashasha6sponge8zero_pad
FN:26,_RNvXNtCslzs1qOtDAlK_9shashasha6spongeNtB2_16Keccak1600SpongeNtNtCs6v2AsOoWRgb_4core7default7Default7default
FN:121,_RNvXs0_NtCslzs1qOtDAlK_9shashasha6spongeNtB5_16Keccak1600SpongeNtNtB7_6traits6Sponge11update_bits
FN:126,_RNvXs0_NtCslzs1qOtDAlK_9shashasha6spongeNtB5_16Keccak1600SpongeNtNtB7_6traits6Sponge6absorb
FN:116,_RNvXs0_NtCslzs1qOtDAlK_9shashasha6spongeNtB5_16Keccak1600SpongeNtNtB7_6traits6Sponge6update
FN:158,_RNvXs0_NtCslzs1qOtDAlK_9shashasha6spongeNtB5_16Keccak1600SpongeNtNtB7_6traits6Sponge7squeeze
FN:166,_RNvXs0_NtCslzs1qOtDAlK_9shashasha6spongeNtB5_16Keccak1600SpongeNtNtB7_6traits6Sponge9squeeze_b
FNDA:105,_RNvMs_NtCsdCcYIHEm2KI_9shashasha6spongeNtB4_16Keccak1600Sponge11fill_output
FNDA:49,_RNvMs_NtCsdCcYIHEm2KI_9shashasha6spongeNtB4_16Keccak1600Sponge3new
FNDA:126,_RNvMs_NtCsdCcYIHEm2KI_9shashasha6spongeNtB4_16Keccak1600Sponge6keccak
FNDA:2096,_RNvMs_NtCsdCcYIHEm2KI_9shashasha6spongeNtB4_16Keccak1600Sponge7squeeze
FNDA:2104,_RNvMs_NtCsdCcYIHEm2KI_9shashasha6spongeNtB4_16Keccak1600Sponge9squeeze_b
FNDA:69,_RNvMs_NtCsdCcYIHEm2KI_9shashasha6spongeNtB4_16Keccak1600Sponge9xor_block
FNDA:69,_RNvNtCsdCcYIHEm2KI_9shashasha6sponge10pad10star1
FNDA:69,_RNvNtCsdCcYIHEm2KI_9shashasha6sponge8zero_pad
FNDA:1,_RNvXNtCsdCcYIHEm2KI_9shashasha6spongeNtB2_16Keccak1600SpongeNtNtCs6v2AsOoWRgb_4core7default7Default7default
FNDA:78,_RNvXs0_NtCsdCcYIHEm2KI_9shashasha6spongeNtB5_16Keccak1600SpongeNtNtB7_6traits6Sponge11update_bits
FNDA:48,_RNvXs0_NtCsdCcYIHEm2KI_9shashasha6spongeNtB5_16Keccak1600SpongeNtNtB7_6traits6Sponge6absorb
FNDA:6,_RNvXs0_NtCsdCcYIHEm2KI_9shashasha6spongeNtB5_16Keccak1600SpongeNtNtB7_6traits6Sponge6update
FNDA:2096,_RNvXs0_NtCsdCcYIHEm2KI_9shashasha6spongeNtB5_16Keccak1600SpongeNtNtB7_6traits6Sponge7squeeze
FNDA:8,_RNvXs0_NtCsdCcYIHEm2KI_9shashasha6spongeNtB5_16Keccak1600SpongeNtNtB7_6traits6Sponge9squeeze_b
FNDA:1,_RNvNtNtCsdCcYIHEm2KI_9shashasha6sponge4tests_29test_keccak1600_default_works
FNDA:1,_RNvNtNtCslzs1qOtDAlK_9shashasha6sponge4tests_29test_keccak1600_default_works
FNDA:105,_RNvMs_NtCslzs1qOtDAlK_9shashasha6spongeNtB4_16Keccak1600Sponge11fill_output
FNDA:49,_RNvMs_NtCslzs1qOtDAlK_9shashasha6spongeNtB4_16Keccak1600Sponge3new
FNDA:126,_RNvMs_NtCslzs1qOtDAlK_9shashasha6spongeNtB4_16Keccak1600Sponge6keccak
FNDA:2096,_RNvMs_NtCslzs1qOtDAlK_9shashasha6spongeNtB4_16Keccak1600Sponge7squeeze
FNDA:2104,_RNvMs_NtCslzs1qOtDAlK_9shashasha6spongeNtB4_16Keccak1600Sponge9squeeze_b
FNDA:69,_RNvMs_NtCslzs1qOtDAlK_9shashasha6spongeNtB4_16Keccak1600Sponge9xor_block
FNDA:69,_RNvNtCslzs1qOtDAlK_9shashasha6sponge10pad10star1
FNDA:69,_RNvNtCslzs1qOtDAlK_9shashasha6sponge8zero_pad
FNDA:1,_RNvXNtCslzs1qOtDAlK_9shashasha6spongeNtB2_16Keccak1600SpongeNtNtCs6v2AsOoWRgb_4core7default7Default7default
FNDA:78,_RNvXs0_NtCslzs1qOtDAlK_9shashasha6spongeNtB5_16Keccak1600SpongeNtNtB7_6traits6Sponge11update_bits
FNDA:48,_RNvXs0_NtCslzs1qOtDAlK_9shashasha6spongeNtB5_16Keccak1600SpongeNtNtB7_6traits6Sponge6absorb
FNDA:6,_RNvXs0_NtCslzs1qOtDAlK_9shashasha6spongeNtB5_16Keccak1600SpongeNtNtB7_6traits6Sponge6update
FNDA:2096,_RNvXs0_NtCslzs1qOtDAlK_9shashasha6spongeNtB5_16Keccak1600SpongeNtNtB7_6traits6Sponge7squeeze
FNDA:8,_RNvXs0_NtCslzs1qOtDAlK_9shashasha6spongeNtB5_16Keccak1600SpongeNtNtB7_6traits6Sponge9squeeze_b
FNF:15
FNH:15
DA:26,2
DA:27,2
DA:28,2
DA:34,98
DA:35,98
DA:36,98
DA:37,98
DA:38,98
DA:39,98
DA:40,98
DA:41,98
DA:42,98
DA:44,138
DA:45,138
DA:47,3450
DA:48,3450
DA:49,220800
DA:50,220800
DA:52,3450
DA:54,138
DA:55,138
DA:57,252
DA:58,252
DA:59,252
DA:60,252
DA:62,210
DA:63,210
DA:64,210
DA:65,5460
DA:66,5250
DA:67,5250
DA:69,210
DA:71,42210
DA:72,42000
DA:73,42000
DA:74,42000
DA:75,210
DA:76,210
DA:78,4192
DA:79,4192
DA:80,4192
DA:82,18808
DA:83,18808
DA:84,18808
DA:85,18808
DA:86,4192
DA:87,4192
DA:89,4208
DA:90,4208
DA:91,24
DA:92,24
DA:93,24
DA:94,4184
DA:95,4208
DA:97,8506
DA:98,175174
DA:99,175084
DA:100,175084
DA:101,175084
DA:102,4208
DA:103,170876
DA:105,4298
DA:106,90
DA:107,90
DA:108,90
DA:109,4208
DA:111,4208
DA:112,4208
DA:116,12
DA:118,12
DA:119,12
DA:121,156
DA:123,156
DA:124,156
DA:126,96
DA:128,96
DA:129,96
DA:130,138
DA:131,42
DA:132,42
DA:133,42
DA:134,42
DA:137,96
DA:139,96
DA:140,96
DA:141,96
DA:142,96
DA:143,96
DA:144,0
DA:146,234
DA:147,138
DA:148,138
DA:151,96
DA:152,96
DA:153,96
DA:154,96
DA:155,96
DA:156,96
DA:158,4192
DA:159,4192
DA:160,4192
DA:162,0
DA:164,4192
DA:166,16
DA:167,16
DA:168,16
DA:171,138
DA:172,138
DA:173,138
DA:174,96
DA:175,96
DA:177,96
DA:179,80136
DA:180,80136
DA:181,80136
DA:183,96
DA:184,42
DA:185,138
DA:186,138
DA:188,138
DA:189,138
DA:190,138
DA:191,138
DA:198,2
DA:199,2
DA:200,2
DA:201,2
DA:202,2
BRF:0
BRH:0
LF:128
LH:126
end_of_record
SF:/home/jozias/projects/rust-lang/shashasha/src/utils.rs
FN:19,_RNvNtCsdCcYIHEm2KI_9shashasha5utils3b2h
FN:86,_RNvNtNtCsdCcYIHEm2KI_9shashasha5utils4tests_23test_b2h_no_space_lower
FN:70,_RNvNtNtCsdCcYIHEm2KI_9shashasha5utils4tests_23test_b2h_no_space_upper
FN:78,_RNvNtNtCsdCcYIHEm2KI_9shashasha5utils4tests_27test_b2h_incude_space_lower
FN:62,_RNvNtNtCsdCcYIHEm2KI_9shashasha5utils4tests_27test_b2h_incude_space_upper
FN:86,_RNvNtNtCslzs1qOtDAlK_9shashasha5utils4tests_23test_b2h_no_space_lower
FN:70,_RNvNtNtCslzs1qOtDAlK_9shashasha5utils4tests_23test_b2h_no_space_upper
FN:78,_RNvNtNtCslzs1qOtDAlK_9shashasha5utils4tests_27test_b2h_incude_space_lower
FN:62,_RNvNtNtCslzs1qOtDAlK_9shashasha5utils4tests_27test_b2h_incude_space_upper
FN:19,_RNvNtCslzs1qOtDAlK_9shashasha5utils3b2h
FNDA:56,_RNvNtCsdCcYIHEm2KI_9shashasha5utils3b2h
FNDA:1,_RNvNtNtCsdCcYIHEm2KI_9shashasha5utils4tests_23test_b2h_no_space_lower
FNDA:1,_RNvNtNtCsdCcYIHEm2KI_9shashasha5utils4tests_23test_b2h_no_space_upper
FNDA:1,_RNvNtNtCsdCcYIHEm2KI_9shashasha5utils4tests_27test_b2h_incude_space_lower
FNDA:1,_RNvNtNtCsdCcYIHEm2KI_9shashasha5utils4tests_27test_b2h_incude_space_upper
FNDA:1,_RNvNtNtCslzs1qOtDAlK_9shashasha5utils4tests_23test_b2h_no_space_lower
FNDA:1,_RNvNtNtCslzs1qOtDAlK_9shashasha5utils4tests_23test_b2h_no_space_upper
FNDA:1,_RNvNtNtCslzs1qOtDAlK_9shashasha5utils4tests_27test_b2h_incude_space_lower
FNDA:1,_RNvNtNtCslzs1qOtDAlK_9shashasha5utils4tests_27test_b2h_incude_space_upper
FNDA:56,_RNvNtCslzs1qOtDAlK_9shashasha5utils3b2h
FNF:5
FNH:5
DA:19,112
DA:20,112
DA:21,112
DA:22,22522
DA:23,22410
DA:24,22410
DA:25,22092
DA:27,318
DA:29,22410
DA:30,22092
DA:31,22092
DA:34,112
DA:36,112
DA:37,14
DA:38,14
DA:39,14
DA:40,4
DA:41,4
DA:42,2
DA:44,2
DA:46,4
DA:47,2
DA:48,2
DA:49,108
DA:50,112
DA:51,112
DA:62,2
DA:63,2
DA:64,2
DA:65,2
DA:66,2
DA:67,2
DA:70,2
DA:71,2
DA:72,2
DA:73,2
DA:74,2
DA:75,2
DA:78,2
DA:79,2
DA:80,2
DA:81,2
DA:82,2
DA:83,2
DA:86,2
DA:87,2
DA:88,2
DA:89,2
DA:90,2
DA:91,2
BRF:0
BRH:0
LF:50
LH:50
end_of_record